

Microchip MPLAB XC8 Assembler V2.46 build 20240104201356 
                                                                                               Sun Aug 25 19:12:50 2024

Microchip MPLAB XC8 C Compiler v2.46 (Free license) build 20240104201356 Og1 
     1                           	processor	16F18346
     2                           	pagewidth 120
     3                           	opt	flic
     4                           	psect	idataBANK1,global,class=CODE,delta=2,noexec
     5                           	psect	idataBANK2,global,class=CODE,delta=2,noexec
     6                           	psect	idataEEDATA,global,class=EEDATA,space=3,delta=2,noexec
     7                           	psect	stringtext1,global,class=STRCODE,delta=2,noexec
     8                           	psect	stringtext2,global,class=STRCODE,delta=2,noexec
     9                           	psect	stringtext3,global,class=STRCODE,delta=2,noexec
    10                           	psect	stringtext4,global,class=STRCODE,delta=2,noexec
    11                           	psect	cinit,global,class=CODE,merge=1,delta=2
    12                           	psect	dataEEDATA,global,class=EEDATA,space=3,delta=2,noexec
    13                           	psect	bssCOMMON,global,class=COMMON,space=1,delta=1,noexec
    14                           	psect	bssBANK0,global,class=BANK0,space=1,delta=1,noexec
    15                           	psect	bssBANK1,global,class=BANK1,space=1,delta=1,noexec
    16                           	psect	dataBANK1,global,class=BANK1,space=1,delta=1,noexec
    17                           	psect	dataBANK2,global,class=BANK2,space=1,delta=1,noexec
    18                           	psect	inittext,global,class=CODE,delta=2
    19                           	psect	clrtext,global,class=CODE,delta=2
    20                           	psect	cstackCOMMON,global,class=COMMON,space=1,delta=1,noexec
    21                           	psect	cstackBANK0,global,class=BANK0,space=1,delta=1,noexec
    22                           	psect	maintext,global,class=CODE,merge=1,split=1,delta=2
    23                           	psect	text1,local,class=CODE,merge=1,delta=2
    24                           	psect	text2,local,class=CODE,merge=1,delta=2
    25                           	psect	text3,local,class=CODE,merge=1,delta=2
    26                           	psect	text4,local,class=CODE,merge=1,delta=2
    27                           	psect	text5,local,class=CODE,merge=1,delta=2
    28                           	psect	text6,local,class=CODE,merge=1,delta=2
    29                           	psect	text7,local,class=CODE,merge=1,delta=2
    30                           	psect	text8,local,class=CODE,merge=1,delta=2
    31                           	psect	text9,local,class=CODE,merge=1,delta=2
    32                           	psect	text10,local,class=CODE,merge=1,delta=2
    33                           	psect	text11,local,class=CODE,merge=1,delta=2
    34                           	psect	text12,local,class=CODE,merge=1,delta=2
    35                           	psect	text13,local,class=CODE,merge=1,delta=2
    36                           	psect	text14,local,class=CODE,merge=1,delta=2
    37                           	psect	text15,local,class=CODE,merge=1,delta=2
    38                           	psect	text16,local,class=CODE,merge=1,inline,delta=2
    39                           	psect	text17,local,class=CODE,merge=1,delta=2
    40                           	psect	text18,local,class=CODE,merge=1,delta=2
    41                           	psect	text19,local,class=CODE,merge=1,delta=2
    42                           	psect	text20,local,class=CODE,merge=1,delta=2
    43                           	psect	text21,local,class=CODE,merge=1,inline,delta=2
    44                           	psect	text22,local,class=CODE,merge=1,delta=2
    45                           	psect	intentry,global,class=CODE,delta=2
    46                           	psect	config,global,abs,ovrld,class=CONFIG,space=4,delta=2,noexec
    47                           	dabs	1,0x7E,2
    48     0000                     
    49                           ; Generated 11/01/2024 GMT
    50                           ; 
    51                           ; Copyright © 2024, Microchip Technology Inc. and its subsidiaries ("Microchip")
    52                           ; All rights reserved.
    53                           ; 
    54                           ; This software is developed by Microchip Technology Inc. and its subsidiaries ("Microch
      +                          ip").
    55                           ; 
    56                           ; Redistribution and use in source and binary forms, with or without modification, are
    57                           ; permitted provided that the following conditions are met:
    58                           ; 
    59                           ;     1. Redistributions of source code must retain the above copyright notice, this lis
      +                          t of
    60                           ;        conditions and the following disclaimer.
    61                           ; 
    62                           ;     2. Redistributions in binary form must reproduce the above copyright notice, this 
      +                          list
    63                           ;        of conditions and the following disclaimer in the documentation and/or other
    64                           ;        materials provided with the distribution. Publication is not required when
    65                           ;        this file is used in an embedded application.
    66                           ; 
    67                           ;     3. Microchip's name may not be used to endorse or promote products derived from th
      +                          is
    68                           ;        software without specific prior written permission.
    69                           ; 
    70                           ; THIS SOFTWARE IS PROVIDED BY MICROCHIP "AS IS" AND ANY EXPRESS OR IMPLIED WARRANTIES,
    71                           ; INCLUDING, BUT NOT LIMITED TO, THE IMPLIED WARRANTIES OF MERCHANTABILITY AND FITNESS F
      +                          OR
    72                           ; PURPOSE ARE DISCLAIMED.  IN NO EVENT SHALL MICROCHIP BE LIABLE FOR ANY DIRECT, INDIREC
      +                          T,
    73                           ; INCIDENTAL, SPECIAL, EXEMPLARY, OR CONSEQUENTIAL DAMAGES (INCLUDING BUT NOT LIMITED TO
    74                           ; PROCUREMENT OF SUBSTITUTE GOODS OR SERVICES; LOSS OF USE, DATA OR PROFITS; OR BUSINESS
    75                           ; INTERRUPTION) HOWSOEVER CAUSED AND ON ANY THEORY OF LIABILITY, WHETHER IN CONTRACT, ST
      +                          RICT
    76                           ; LIABILITY, OR TORT (INCLUDING NEGLIGENCE OR OTHERWISE) ARISING IN ANY WAY OUT OF THE U
      +                          SE OF
    77                           ; THIS SOFTWARE, EVEN IF ADVISED OF THE POSSIBILITY OF SUCH DAMAGE.
    78                           ; 
    79                           ; 
    80                           ; Code-generator required, PIC16F18346 Definitions
    81                           ; 
    82                           ; SFR Addresses
    83     0000                     	;# 
    84     0001                     	;# 
    85     0002                     	;# 
    86     0003                     	;# 
    87     0004                     	;# 
    88     0005                     	;# 
    89     0006                     	;# 
    90     0007                     	;# 
    91     0008                     	;# 
    92     0009                     	;# 
    93     000A                     	;# 
    94     000B                     	;# 
    95     000C                     	;# 
    96     000D                     	;# 
    97     000E                     	;# 
    98     0010                     	;# 
    99     0011                     	;# 
   100     0012                     	;# 
   101     0013                     	;# 
   102     0014                     	;# 
   103     0015                     	;# 
   104     0015                     	;# 
   105     0016                     	;# 
   106     0016                     	;# 
   107     0017                     	;# 
   108     0018                     	;# 
   109     0019                     	;# 
   110     0019                     	;# 
   111     001A                     	;# 
   112     001B                     	;# 
   113     001C                     	;# 
   114     001D                     	;# 
   115     001E                     	;# 
   116     001F                     	;# 
   117     008C                     	;# 
   118     008D                     	;# 
   119     008E                     	;# 
   120     0090                     	;# 
   121     0091                     	;# 
   122     0092                     	;# 
   123     0093                     	;# 
   124     0094                     	;# 
   125     0097                     	;# 
   126     009B                     	;# 
   127     009B                     	;# 
   128     009C                     	;# 
   129     009D                     	;# 
   130     009E                     	;# 
   131     009F                     	;# 
   132     010C                     	;# 
   133     010D                     	;# 
   134     010E                     	;# 
   135     0111                     	;# 
   136     0112                     	;# 
   137     0113                     	;# 
   138     0114                     	;# 
   139     0115                     	;# 
   140     0116                     	;# 
   141     0117                     	;# 
   142     0118                     	;# 
   143     0119                     	;# 
   144     018C                     	;# 
   145     018D                     	;# 
   146     018E                     	;# 
   147     0197                     	;# 
   148     0199                     	;# 
   149     0199                     	;# 
   150     0199                     	;# 
   151     019A                     	;# 
   152     019A                     	;# 
   153     019A                     	;# 
   154     019B                     	;# 
   155     019B                     	;# 
   156     019B                     	;# 
   157     019B                     	;# 
   158     019B                     	;# 
   159     019C                     	;# 
   160     019C                     	;# 
   161     019C                     	;# 
   162     019D                     	;# 
   163     019D                     	;# 
   164     019D                     	;# 
   165     019E                     	;# 
   166     019E                     	;# 
   167     019E                     	;# 
   168     019F                     	;# 
   169     019F                     	;# 
   170     019F                     	;# 
   171     019F                     	;# 
   172     019F                     	;# 
   173     020C                     	;# 
   174     020D                     	;# 
   175     020E                     	;# 
   176     0211                     	;# 
   177     0211                     	;# 
   178     0212                     	;# 
   179     0212                     	;# 
   180     0213                     	;# 
   181     0213                     	;# 
   182     0214                     	;# 
   183     0214                     	;# 
   184     0215                     	;# 
   185     0215                     	;# 
   186     0215                     	;# 
   187     0215                     	;# 
   188     0216                     	;# 
   189     0216                     	;# 
   190     0217                     	;# 
   191     0217                     	;# 
   192     0219                     	;# 
   193     021A                     	;# 
   194     021B                     	;# 
   195     021C                     	;# 
   196     021D                     	;# 
   197     021D                     	;# 
   198     021E                     	;# 
   199     021F                     	;# 
   200     028C                     	;# 
   201     028D                     	;# 
   202     028E                     	;# 
   203     0291                     	;# 
   204     0291                     	;# 
   205     0292                     	;# 
   206     0293                     	;# 
   207     0294                     	;# 
   208     0295                     	;# 
   209     0295                     	;# 
   210     0296                     	;# 
   211     0297                     	;# 
   212     0298                     	;# 
   213     029F                     	;# 
   214     030C                     	;# 
   215     030D                     	;# 
   216     030E                     	;# 
   217     0311                     	;# 
   218     0311                     	;# 
   219     0312                     	;# 
   220     0313                     	;# 
   221     0314                     	;# 
   222     0315                     	;# 
   223     0315                     	;# 
   224     0316                     	;# 
   225     0317                     	;# 
   226     0318                     	;# 
   227     038C                     	;# 
   228     038D                     	;# 
   229     038E                     	;# 
   230     0391                     	;# 
   231     0392                     	;# 
   232     0393                     	;# 
   233     0394                     	;# 
   234     0395                     	;# 
   235     0396                     	;# 
   236     0397                     	;# 
   237     0398                     	;# 
   238     0399                     	;# 
   239     039A                     	;# 
   240     039C                     	;# 
   241     039D                     	;# 
   242     039E                     	;# 
   243     039F                     	;# 
   244     0411                     	;# 
   245     0411                     	;# 
   246     0412                     	;# 
   247     0413                     	;# 
   248     0414                     	;# 
   249     0415                     	;# 
   250     0416                     	;# 
   251     0417                     	;# 
   252     0418                     	;# 
   253     0418                     	;# 
   254     0419                     	;# 
   255     041A                     	;# 
   256     041B                     	;# 
   257     041C                     	;# 
   258     041D                     	;# 
   259     041E                     	;# 
   260     041F                     	;# 
   261     0498                     	;# 
   262     0498                     	;# 
   263     0499                     	;# 
   264     049A                     	;# 
   265     049B                     	;# 
   266     049B                     	;# 
   267     049C                     	;# 
   268     049D                     	;# 
   269     049E                     	;# 
   270     049F                     	;# 
   271     0617                     	;# 
   272     0618                     	;# 
   273     0619                     	;# 
   274     0619                     	;# 
   275     061A                     	;# 
   276     061B                     	;# 
   277     061C                     	;# 
   278     061C                     	;# 
   279     061F                     	;# 
   280     0691                     	;# 
   281     0692                     	;# 
   282     0693                     	;# 
   283     0694                     	;# 
   284     0695                     	;# 
   285     0696                     	;# 
   286     0697                     	;# 
   287     0698                     	;# 
   288     0699                     	;# 
   289     0711                     	;# 
   290     0712                     	;# 
   291     0713                     	;# 
   292     0714                     	;# 
   293     0715                     	;# 
   294     0716                     	;# 
   295     0717                     	;# 
   296     0718                     	;# 
   297     0719                     	;# 
   298     0891                     	;# 
   299     0891                     	;# 
   300     0891                     	;# 
   301     0891                     	;# 
   302     0891                     	;# 
   303     0891                     	;# 
   304     0892                     	;# 
   305     0892                     	;# 
   306     0892                     	;# 
   307     0893                     	;# 
   308     0893                     	;# 
   309     0893                     	;# 
   310     0893                     	;# 
   311     0893                     	;# 
   312     0893                     	;# 
   313     0894                     	;# 
   314     0894                     	;# 
   315     0894                     	;# 
   316     0895                     	;# 
   317     0895                     	;# 
   318     0895                     	;# 
   319     0896                     	;# 
   320     0896                     	;# 
   321     0896                     	;# 
   322     089B                     	;# 
   323     0911                     	;# 
   324     0912                     	;# 
   325     0913                     	;# 
   326     0914                     	;# 
   327     0915                     	;# 
   328     0916                     	;# 
   329     0918                     	;# 
   330     0919                     	;# 
   331     091A                     	;# 
   332     091B                     	;# 
   333     091C                     	;# 
   334     091D                     	;# 
   335     091E                     	;# 
   336     091F                     	;# 
   337     0E0F                     	;# 
   338     0E10                     	;# 
   339     0E11                     	;# 
   340     0E12                     	;# 
   341     0E13                     	;# 
   342     0E14                     	;# 
   343     0E15                     	;# 
   344     0E16                     	;# 
   345     0E17                     	;# 
   346     0E18                     	;# 
   347     0E19                     	;# 
   348     0E1A                     	;# 
   349     0E1B                     	;# 
   350     0E1C                     	;# 
   351     0E1D                     	;# 
   352     0E1E                     	;# 
   353     0E1F                     	;# 
   354     0E20                     	;# 
   355     0E21                     	;# 
   356     0E22                     	;# 
   357     0E24                     	;# 
   358     0E25                     	;# 
   359     0E28                     	;# 
   360     0E29                     	;# 
   361     0E2A                     	;# 
   362     0E2B                     	;# 
   363     0E2C                     	;# 
   364     0E2D                     	;# 
   365     0E2E                     	;# 
   366     0E2F                     	;# 
   367     0E90                     	;# 
   368     0E91                     	;# 
   369     0E92                     	;# 
   370     0E94                     	;# 
   371     0E95                     	;# 
   372     0E9C                     	;# 
   373     0E9D                     	;# 
   374     0E9E                     	;# 
   375     0E9F                     	;# 
   376     0EA0                     	;# 
   377     0EA1                     	;# 
   378     0EA2                     	;# 
   379     0EA3                     	;# 
   380     0EA4                     	;# 
   381     0EA5                     	;# 
   382     0EA6                     	;# 
   383     0EA7                     	;# 
   384     0F0F                     	;# 
   385     0F10                     	;# 
   386     0F11                     	;# 
   387     0F12                     	;# 
   388     0F13                     	;# 
   389     0F14                     	;# 
   390     0F15                     	;# 
   391     0F16                     	;# 
   392     0F17                     	;# 
   393     0F18                     	;# 
   394     0F19                     	;# 
   395     0F1A                     	;# 
   396     0F1B                     	;# 
   397     0F1C                     	;# 
   398     0F1D                     	;# 
   399     0F1E                     	;# 
   400     0F1F                     	;# 
   401     0F20                     	;# 
   402     0F21                     	;# 
   403     0F22                     	;# 
   404     0F23                     	;# 
   405     0F24                     	;# 
   406     0F25                     	;# 
   407     0F26                     	;# 
   408     0F27                     	;# 
   409     0F28                     	;# 
   410     0F29                     	;# 
   411     0F2A                     	;# 
   412     0F2B                     	;# 
   413     0F2C                     	;# 
   414     0F2D                     	;# 
   415     0F2E                     	;# 
   416     0F2F                     	;# 
   417     0F30                     	;# 
   418     0F31                     	;# 
   419     0F32                     	;# 
   420     0F33                     	;# 
   421     0F34                     	;# 
   422     0F35                     	;# 
   423     0F36                     	;# 
   424     0F37                     	;# 
   425     0FE4                     	;# 
   426     0FE5                     	;# 
   427     0FE6                     	;# 
   428     0FE7                     	;# 
   429     0FE8                     	;# 
   430     0FE9                     	;# 
   431     0FEA                     	;# 
   432     0FEB                     	;# 
   433     0FED                     	;# 
   434     0FEE                     	;# 
   435     0FEF                     	;# 
   436     0000                     	;# 
   437     0001                     	;# 
   438     0002                     	;# 
   439     0003                     	;# 
   440     0004                     	;# 
   441     0005                     	;# 
   442     0006                     	;# 
   443     0007                     	;# 
   444     0008                     	;# 
   445     0009                     	;# 
   446     000A                     	;# 
   447     000B                     	;# 
   448     000C                     	;# 
   449     000D                     	;# 
   450     000E                     	;# 
   451     0010                     	;# 
   452     0011                     	;# 
   453     0012                     	;# 
   454     0013                     	;# 
   455     0014                     	;# 
   456     0015                     	;# 
   457     0015                     	;# 
   458     0016                     	;# 
   459     0016                     	;# 
   460     0017                     	;# 
   461     0018                     	;# 
   462     0019                     	;# 
   463     0019                     	;# 
   464     001A                     	;# 
   465     001B                     	;# 
   466     001C                     	;# 
   467     001D                     	;# 
   468     001E                     	;# 
   469     001F                     	;# 
   470     008C                     	;# 
   471     008D                     	;# 
   472     008E                     	;# 
   473     0090                     	;# 
   474     0091                     	;# 
   475     0092                     	;# 
   476     0093                     	;# 
   477     0094                     	;# 
   478     0097                     	;# 
   479     009B                     	;# 
   480     009B                     	;# 
   481     009C                     	;# 
   482     009D                     	;# 
   483     009E                     	;# 
   484     009F                     	;# 
   485     010C                     	;# 
   486     010D                     	;# 
   487     010E                     	;# 
   488     0111                     	;# 
   489     0112                     	;# 
   490     0113                     	;# 
   491     0114                     	;# 
   492     0115                     	;# 
   493     0116                     	;# 
   494     0117                     	;# 
   495     0118                     	;# 
   496     0119                     	;# 
   497     018C                     	;# 
   498     018D                     	;# 
   499     018E                     	;# 
   500     0197                     	;# 
   501     0199                     	;# 
   502     0199                     	;# 
   503     0199                     	;# 
   504     019A                     	;# 
   505     019A                     	;# 
   506     019A                     	;# 
   507     019B                     	;# 
   508     019B                     	;# 
   509     019B                     	;# 
   510     019B                     	;# 
   511     019B                     	;# 
   512     019C                     	;# 
   513     019C                     	;# 
   514     019C                     	;# 
   515     019D                     	;# 
   516     019D                     	;# 
   517     019D                     	;# 
   518     019E                     	;# 
   519     019E                     	;# 
   520     019E                     	;# 
   521     019F                     	;# 
   522     019F                     	;# 
   523     019F                     	;# 
   524     019F                     	;# 
   525     019F                     	;# 
   526     020C                     	;# 
   527     020D                     	;# 
   528     020E                     	;# 
   529     0211                     	;# 
   530     0211                     	;# 
   531     0212                     	;# 
   532     0212                     	;# 
   533     0213                     	;# 
   534     0213                     	;# 
   535     0214                     	;# 
   536     0214                     	;# 
   537     0215                     	;# 
   538     0215                     	;# 
   539     0215                     	;# 
   540     0215                     	;# 
   541     0216                     	;# 
   542     0216                     	;# 
   543     0217                     	;# 
   544     0217                     	;# 
   545     0219                     	;# 
   546     021A                     	;# 
   547     021B                     	;# 
   548     021C                     	;# 
   549     021D                     	;# 
   550     021D                     	;# 
   551     021E                     	;# 
   552     021F                     	;# 
   553     028C                     	;# 
   554     028D                     	;# 
   555     028E                     	;# 
   556     0291                     	;# 
   557     0291                     	;# 
   558     0292                     	;# 
   559     0293                     	;# 
   560     0294                     	;# 
   561     0295                     	;# 
   562     0295                     	;# 
   563     0296                     	;# 
   564     0297                     	;# 
   565     0298                     	;# 
   566     029F                     	;# 
   567     030C                     	;# 
   568     030D                     	;# 
   569     030E                     	;# 
   570     0311                     	;# 
   571     0311                     	;# 
   572     0312                     	;# 
   573     0313                     	;# 
   574     0314                     	;# 
   575     0315                     	;# 
   576     0315                     	;# 
   577     0316                     	;# 
   578     0317                     	;# 
   579     0318                     	;# 
   580     038C                     	;# 
   581     038D                     	;# 
   582     038E                     	;# 
   583     0391                     	;# 
   584     0392                     	;# 
   585     0393                     	;# 
   586     0394                     	;# 
   587     0395                     	;# 
   588     0396                     	;# 
   589     0397                     	;# 
   590     0398                     	;# 
   591     0399                     	;# 
   592     039A                     	;# 
   593     039C                     	;# 
   594     039D                     	;# 
   595     039E                     	;# 
   596     039F                     	;# 
   597     0411                     	;# 
   598     0411                     	;# 
   599     0412                     	;# 
   600     0413                     	;# 
   601     0414                     	;# 
   602     0415                     	;# 
   603     0416                     	;# 
   604     0417                     	;# 
   605     0418                     	;# 
   606     0418                     	;# 
   607     0419                     	;# 
   608     041A                     	;# 
   609     041B                     	;# 
   610     041C                     	;# 
   611     041D                     	;# 
   612     041E                     	;# 
   613     041F                     	;# 
   614     0498                     	;# 
   615     0498                     	;# 
   616     0499                     	;# 
   617     049A                     	;# 
   618     049B                     	;# 
   619     049B                     	;# 
   620     049C                     	;# 
   621     049D                     	;# 
   622     049E                     	;# 
   623     049F                     	;# 
   624     0617                     	;# 
   625     0618                     	;# 
   626     0619                     	;# 
   627     0619                     	;# 
   628     061A                     	;# 
   629     061B                     	;# 
   630     061C                     	;# 
   631     061C                     	;# 
   632     061F                     	;# 
   633     0691                     	;# 
   634     0692                     	;# 
   635     0693                     	;# 
   636     0694                     	;# 
   637     0695                     	;# 
   638     0696                     	;# 
   639     0697                     	;# 
   640     0698                     	;# 
   641     0699                     	;# 
   642     0711                     	;# 
   643     0712                     	;# 
   644     0713                     	;# 
   645     0714                     	;# 
   646     0715                     	;# 
   647     0716                     	;# 
   648     0717                     	;# 
   649     0718                     	;# 
   650     0719                     	;# 
   651     0891                     	;# 
   652     0891                     	;# 
   653     0891                     	;# 
   654     0891                     	;# 
   655     0891                     	;# 
   656     0891                     	;# 
   657     0892                     	;# 
   658     0892                     	;# 
   659     0892                     	;# 
   660     0893                     	;# 
   661     0893                     	;# 
   662     0893                     	;# 
   663     0893                     	;# 
   664     0893                     	;# 
   665     0893                     	;# 
   666     0894                     	;# 
   667     0894                     	;# 
   668     0894                     	;# 
   669     0895                     	;# 
   670     0895                     	;# 
   671     0895                     	;# 
   672     0896                     	;# 
   673     0896                     	;# 
   674     0896                     	;# 
   675     089B                     	;# 
   676     0911                     	;# 
   677     0912                     	;# 
   678     0913                     	;# 
   679     0914                     	;# 
   680     0915                     	;# 
   681     0916                     	;# 
   682     0918                     	;# 
   683     0919                     	;# 
   684     091A                     	;# 
   685     091B                     	;# 
   686     091C                     	;# 
   687     091D                     	;# 
   688     091E                     	;# 
   689     091F                     	;# 
   690     0E0F                     	;# 
   691     0E10                     	;# 
   692     0E11                     	;# 
   693     0E12                     	;# 
   694     0E13                     	;# 
   695     0E14                     	;# 
   696     0E15                     	;# 
   697     0E16                     	;# 
   698     0E17                     	;# 
   699     0E18                     	;# 
   700     0E19                     	;# 
   701     0E1A                     	;# 
   702     0E1B                     	;# 
   703     0E1C                     	;# 
   704     0E1D                     	;# 
   705     0E1E                     	;# 
   706     0E1F                     	;# 
   707     0E20                     	;# 
   708     0E21                     	;# 
   709     0E22                     	;# 
   710     0E24                     	;# 
   711     0E25                     	;# 
   712     0E28                     	;# 
   713     0E29                     	;# 
   714     0E2A                     	;# 
   715     0E2B                     	;# 
   716     0E2C                     	;# 
   717     0E2D                     	;# 
   718     0E2E                     	;# 
   719     0E2F                     	;# 
   720     0E90                     	;# 
   721     0E91                     	;# 
   722     0E92                     	;# 
   723     0E94                     	;# 
   724     0E95                     	;# 
   725     0E9C                     	;# 
   726     0E9D                     	;# 
   727     0E9E                     	;# 
   728     0E9F                     	;# 
   729     0EA0                     	;# 
   730     0EA1                     	;# 
   731     0EA2                     	;# 
   732     0EA3                     	;# 
   733     0EA4                     	;# 
   734     0EA5                     	;# 
   735     0EA6                     	;# 
   736     0EA7                     	;# 
   737     0F0F                     	;# 
   738     0F10                     	;# 
   739     0F11                     	;# 
   740     0F12                     	;# 
   741     0F13                     	;# 
   742     0F14                     	;# 
   743     0F15                     	;# 
   744     0F16                     	;# 
   745     0F17                     	;# 
   746     0F18                     	;# 
   747     0F19                     	;# 
   748     0F1A                     	;# 
   749     0F1B                     	;# 
   750     0F1C                     	;# 
   751     0F1D                     	;# 
   752     0F1E                     	;# 
   753     0F1F                     	;# 
   754     0F20                     	;# 
   755     0F21                     	;# 
   756     0F22                     	;# 
   757     0F23                     	;# 
   758     0F24                     	;# 
   759     0F25                     	;# 
   760     0F26                     	;# 
   761     0F27                     	;# 
   762     0F28                     	;# 
   763     0F29                     	;# 
   764     0F2A                     	;# 
   765     0F2B                     	;# 
   766     0F2C                     	;# 
   767     0F2D                     	;# 
   768     0F2E                     	;# 
   769     0F2F                     	;# 
   770     0F30                     	;# 
   771     0F31                     	;# 
   772     0F32                     	;# 
   773     0F33                     	;# 
   774     0F34                     	;# 
   775     0F35                     	;# 
   776     0F36                     	;# 
   777     0F37                     	;# 
   778     0FE4                     	;# 
   779     0FE5                     	;# 
   780     0FE6                     	;# 
   781     0FE7                     	;# 
   782     0FE8                     	;# 
   783     0FE9                     	;# 
   784     0FEA                     	;# 
   785     0FEB                     	;# 
   786     0FED                     	;# 
   787     0FEE                     	;# 
   788     0FEF                     	;# 
   789     0000                     	;# 
   790     0001                     	;# 
   791     0002                     	;# 
   792     0003                     	;# 
   793     0004                     	;# 
   794     0005                     	;# 
   795     0006                     	;# 
   796     0007                     	;# 
   797     0008                     	;# 
   798     0009                     	;# 
   799     000A                     	;# 
   800     000B                     	;# 
   801     000C                     	;# 
   802     000D                     	;# 
   803     000E                     	;# 
   804     0010                     	;# 
   805     0011                     	;# 
   806     0012                     	;# 
   807     0013                     	;# 
   808     0014                     	;# 
   809     0015                     	;# 
   810     0015                     	;# 
   811     0016                     	;# 
   812     0016                     	;# 
   813     0017                     	;# 
   814     0018                     	;# 
   815     0019                     	;# 
   816     0019                     	;# 
   817     001A                     	;# 
   818     001B                     	;# 
   819     001C                     	;# 
   820     001D                     	;# 
   821     001E                     	;# 
   822     001F                     	;# 
   823     008C                     	;# 
   824     008D                     	;# 
   825     008E                     	;# 
   826     0090                     	;# 
   827     0091                     	;# 
   828     0092                     	;# 
   829     0093                     	;# 
   830     0094                     	;# 
   831     0097                     	;# 
   832     009B                     	;# 
   833     009B                     	;# 
   834     009C                     	;# 
   835     009D                     	;# 
   836     009E                     	;# 
   837     009F                     	;# 
   838     010C                     	;# 
   839     010D                     	;# 
   840     010E                     	;# 
   841     0111                     	;# 
   842     0112                     	;# 
   843     0113                     	;# 
   844     0114                     	;# 
   845     0115                     	;# 
   846     0116                     	;# 
   847     0117                     	;# 
   848     0118                     	;# 
   849     0119                     	;# 
   850     018C                     	;# 
   851     018D                     	;# 
   852     018E                     	;# 
   853     0197                     	;# 
   854     0199                     	;# 
   855     0199                     	;# 
   856     0199                     	;# 
   857     019A                     	;# 
   858     019A                     	;# 
   859     019A                     	;# 
   860     019B                     	;# 
   861     019B                     	;# 
   862     019B                     	;# 
   863     019B                     	;# 
   864     019B                     	;# 
   865     019C                     	;# 
   866     019C                     	;# 
   867     019C                     	;# 
   868     019D                     	;# 
   869     019D                     	;# 
   870     019D                     	;# 
   871     019E                     	;# 
   872     019E                     	;# 
   873     019E                     	;# 
   874     019F                     	;# 
   875     019F                     	;# 
   876     019F                     	;# 
   877     019F                     	;# 
   878     019F                     	;# 
   879     020C                     	;# 
   880     020D                     	;# 
   881     020E                     	;# 
   882     0211                     	;# 
   883     0211                     	;# 
   884     0212                     	;# 
   885     0212                     	;# 
   886     0213                     	;# 
   887     0213                     	;# 
   888     0214                     	;# 
   889     0214                     	;# 
   890     0215                     	;# 
   891     0215                     	;# 
   892     0215                     	;# 
   893     0215                     	;# 
   894     0216                     	;# 
   895     0216                     	;# 
   896     0217                     	;# 
   897     0217                     	;# 
   898     0219                     	;# 
   899     021A                     	;# 
   900     021B                     	;# 
   901     021C                     	;# 
   902     021D                     	;# 
   903     021D                     	;# 
   904     021E                     	;# 
   905     021F                     	;# 
   906     028C                     	;# 
   907     028D                     	;# 
   908     028E                     	;# 
   909     0291                     	;# 
   910     0291                     	;# 
   911     0292                     	;# 
   912     0293                     	;# 
   913     0294                     	;# 
   914     0295                     	;# 
   915     0295                     	;# 
   916     0296                     	;# 
   917     0297                     	;# 
   918     0298                     	;# 
   919     029F                     	;# 
   920     030C                     	;# 
   921     030D                     	;# 
   922     030E                     	;# 
   923     0311                     	;# 
   924     0311                     	;# 
   925     0312                     	;# 
   926     0313                     	;# 
   927     0314                     	;# 
   928     0315                     	;# 
   929     0315                     	;# 
   930     0316                     	;# 
   931     0317                     	;# 
   932     0318                     	;# 
   933     038C                     	;# 
   934     038D                     	;# 
   935     038E                     	;# 
   936     0391                     	;# 
   937     0392                     	;# 
   938     0393                     	;# 
   939     0394                     	;# 
   940     0395                     	;# 
   941     0396                     	;# 
   942     0397                     	;# 
   943     0398                     	;# 
   944     0399                     	;# 
   945     039A                     	;# 
   946     039C                     	;# 
   947     039D                     	;# 
   948     039E                     	;# 
   949     039F                     	;# 
   950     0411                     	;# 
   951     0411                     	;# 
   952     0412                     	;# 
   953     0413                     	;# 
   954     0414                     	;# 
   955     0415                     	;# 
   956     0416                     	;# 
   957     0417                     	;# 
   958     0418                     	;# 
   959     0418                     	;# 
   960     0419                     	;# 
   961     041A                     	;# 
   962     041B                     	;# 
   963     041C                     	;# 
   964     041D                     	;# 
   965     041E                     	;# 
   966     041F                     	;# 
   967     0498                     	;# 
   968     0498                     	;# 
   969     0499                     	;# 
   970     049A                     	;# 
   971     049B                     	;# 
   972     049B                     	;# 
   973     049C                     	;# 
   974     049D                     	;# 
   975     049E                     	;# 
   976     049F                     	;# 
   977     0617                     	;# 
   978     0618                     	;# 
   979     0619                     	;# 
   980     0619                     	;# 
   981     061A                     	;# 
   982     061B                     	;# 
   983     061C                     	;# 
   984     061C                     	;# 
   985     061F                     	;# 
   986     0691                     	;# 
   987     0692                     	;# 
   988     0693                     	;# 
   989     0694                     	;# 
   990     0695                     	;# 
   991     0696                     	;# 
   992     0697                     	;# 
   993     0698                     	;# 
   994     0699                     	;# 
   995     0711                     	;# 
   996     0712                     	;# 
   997     0713                     	;# 
   998     0714                     	;# 
   999     0715                     	;# 
  1000     0716                     	;# 
  1001     0717                     	;# 
  1002     0718                     	;# 
  1003     0719                     	;# 
  1004     0891                     	;# 
  1005     0891                     	;# 
  1006     0891                     	;# 
  1007     0891                     	;# 
  1008     0891                     	;# 
  1009     0891                     	;# 
  1010     0892                     	;# 
  1011     0892                     	;# 
  1012     0892                     	;# 
  1013     0893                     	;# 
  1014     0893                     	;# 
  1015     0893                     	;# 
  1016     0893                     	;# 
  1017     0893                     	;# 
  1018     0893                     	;# 
  1019     0894                     	;# 
  1020     0894                     	;# 
  1021     0894                     	;# 
  1022     0895                     	;# 
  1023     0895                     	;# 
  1024     0895                     	;# 
  1025     0896                     	;# 
  1026     0896                     	;# 
  1027     0896                     	;# 
  1028     089B                     	;# 
  1029     0911                     	;# 
  1030     0912                     	;# 
  1031     0913                     	;# 
  1032     0914                     	;# 
  1033     0915                     	;# 
  1034     0916                     	;# 
  1035     0918                     	;# 
  1036     0919                     	;# 
  1037     091A                     	;# 
  1038     091B                     	;# 
  1039     091C                     	;# 
  1040     091D                     	;# 
  1041     091E                     	;# 
  1042     091F                     	;# 
  1043     0E0F                     	;# 
  1044     0E10                     	;# 
  1045     0E11                     	;# 
  1046     0E12                     	;# 
  1047     0E13                     	;# 
  1048     0E14                     	;# 
  1049     0E15                     	;# 
  1050     0E16                     	;# 
  1051     0E17                     	;# 
  1052     0E18                     	;# 
  1053     0E19                     	;# 
  1054     0E1A                     	;# 
  1055     0E1B                     	;# 
  1056     0E1C                     	;# 
  1057     0E1D                     	;# 
  1058     0E1E                     	;# 
  1059     0E1F                     	;# 
  1060     0E20                     	;# 
  1061     0E21                     	;# 
  1062     0E22                     	;# 
  1063     0E24                     	;# 
  1064     0E25                     	;# 
  1065     0E28                     	;# 
  1066     0E29                     	;# 
  1067     0E2A                     	;# 
  1068     0E2B                     	;# 
  1069     0E2C                     	;# 
  1070     0E2D                     	;# 
  1071     0E2E                     	;# 
  1072     0E2F                     	;# 
  1073     0E90                     	;# 
  1074     0E91                     	;# 
  1075     0E92                     	;# 
  1076     0E94                     	;# 
  1077     0E95                     	;# 
  1078     0E9C                     	;# 
  1079     0E9D                     	;# 
  1080     0E9E                     	;# 
  1081     0E9F                     	;# 
  1082     0EA0                     	;# 
  1083     0EA1                     	;# 
  1084     0EA2                     	;# 
  1085     0EA3                     	;# 
  1086     0EA4                     	;# 
  1087     0EA5                     	;# 
  1088     0EA6                     	;# 
  1089     0EA7                     	;# 
  1090     0F0F                     	;# 
  1091     0F10                     	;# 
  1092     0F11                     	;# 
  1093     0F12                     	;# 
  1094     0F13                     	;# 
  1095     0F14                     	;# 
  1096     0F15                     	;# 
  1097     0F16                     	;# 
  1098     0F17                     	;# 
  1099     0F18                     	;# 
  1100     0F19                     	;# 
  1101     0F1A                     	;# 
  1102     0F1B                     	;# 
  1103     0F1C                     	;# 
  1104     0F1D                     	;# 
  1105     0F1E                     	;# 
  1106     0F1F                     	;# 
  1107     0F20                     	;# 
  1108     0F21                     	;# 
  1109     0F22                     	;# 
  1110     0F23                     	;# 
  1111     0F24                     	;# 
  1112     0F25                     	;# 
  1113     0F26                     	;# 
  1114     0F27                     	;# 
  1115     0F28                     	;# 
  1116     0F29                     	;# 
  1117     0F2A                     	;# 
  1118     0F2B                     	;# 
  1119     0F2C                     	;# 
  1120     0F2D                     	;# 
  1121     0F2E                     	;# 
  1122     0F2F                     	;# 
  1123     0F30                     	;# 
  1124     0F31                     	;# 
  1125     0F32                     	;# 
  1126     0F33                     	;# 
  1127     0F34                     	;# 
  1128     0F35                     	;# 
  1129     0F36                     	;# 
  1130     0F37                     	;# 
  1131     0FE4                     	;# 
  1132     0FE5                     	;# 
  1133     0FE6                     	;# 
  1134     0FE7                     	;# 
  1135     0FE8                     	;# 
  1136     0FE9                     	;# 
  1137     0FEA                     	;# 
  1138     0FEB                     	;# 
  1139     0FED                     	;# 
  1140     0FEE                     	;# 
  1141     0FEF                     	;# 
  1142     0000                     	;# 
  1143     0001                     	;# 
  1144     0002                     	;# 
  1145     0003                     	;# 
  1146     0004                     	;# 
  1147     0005                     	;# 
  1148     0006                     	;# 
  1149     0007                     	;# 
  1150     0008                     	;# 
  1151     0009                     	;# 
  1152     000A                     	;# 
  1153     000B                     	;# 
  1154     000C                     	;# 
  1155     000D                     	;# 
  1156     000E                     	;# 
  1157     0010                     	;# 
  1158     0011                     	;# 
  1159     0012                     	;# 
  1160     0013                     	;# 
  1161     0014                     	;# 
  1162     0015                     	;# 
  1163     0015                     	;# 
  1164     0016                     	;# 
  1165     0016                     	;# 
  1166     0017                     	;# 
  1167     0018                     	;# 
  1168     0019                     	;# 
  1169     0019                     	;# 
  1170     001A                     	;# 
  1171     001B                     	;# 
  1172     001C                     	;# 
  1173     001D                     	;# 
  1174     001E                     	;# 
  1175     001F                     	;# 
  1176     008C                     	;# 
  1177     008D                     	;# 
  1178     008E                     	;# 
  1179     0090                     	;# 
  1180     0091                     	;# 
  1181     0092                     	;# 
  1182     0093                     	;# 
  1183     0094                     	;# 
  1184     0097                     	;# 
  1185     009B                     	;# 
  1186     009B                     	;# 
  1187     009C                     	;# 
  1188     009D                     	;# 
  1189     009E                     	;# 
  1190     009F                     	;# 
  1191     010C                     	;# 
  1192     010D                     	;# 
  1193     010E                     	;# 
  1194     0111                     	;# 
  1195     0112                     	;# 
  1196     0113                     	;# 
  1197     0114                     	;# 
  1198     0115                     	;# 
  1199     0116                     	;# 
  1200     0117                     	;# 
  1201     0118                     	;# 
  1202     0119                     	;# 
  1203     018C                     	;# 
  1204     018D                     	;# 
  1205     018E                     	;# 
  1206     0197                     	;# 
  1207     0199                     	;# 
  1208     0199                     	;# 
  1209     0199                     	;# 
  1210     019A                     	;# 
  1211     019A                     	;# 
  1212     019A                     	;# 
  1213     019B                     	;# 
  1214     019B                     	;# 
  1215     019B                     	;# 
  1216     019B                     	;# 
  1217     019B                     	;# 
  1218     019C                     	;# 
  1219     019C                     	;# 
  1220     019C                     	;# 
  1221     019D                     	;# 
  1222     019D                     	;# 
  1223     019D                     	;# 
  1224     019E                     	;# 
  1225     019E                     	;# 
  1226     019E                     	;# 
  1227     019F                     	;# 
  1228     019F                     	;# 
  1229     019F                     	;# 
  1230     019F                     	;# 
  1231     019F                     	;# 
  1232     020C                     	;# 
  1233     020D                     	;# 
  1234     020E                     	;# 
  1235     0211                     	;# 
  1236     0211                     	;# 
  1237     0212                     	;# 
  1238     0212                     	;# 
  1239     0213                     	;# 
  1240     0213                     	;# 
  1241     0214                     	;# 
  1242     0214                     	;# 
  1243     0215                     	;# 
  1244     0215                     	;# 
  1245     0215                     	;# 
  1246     0215                     	;# 
  1247     0216                     	;# 
  1248     0216                     	;# 
  1249     0217                     	;# 
  1250     0217                     	;# 
  1251     0219                     	;# 
  1252     021A                     	;# 
  1253     021B                     	;# 
  1254     021C                     	;# 
  1255     021D                     	;# 
  1256     021D                     	;# 
  1257     021E                     	;# 
  1258     021F                     	;# 
  1259     028C                     	;# 
  1260     028D                     	;# 
  1261     028E                     	;# 
  1262     0291                     	;# 
  1263     0291                     	;# 
  1264     0292                     	;# 
  1265     0293                     	;# 
  1266     0294                     	;# 
  1267     0295                     	;# 
  1268     0295                     	;# 
  1269     0296                     	;# 
  1270     0297                     	;# 
  1271     0298                     	;# 
  1272     029F                     	;# 
  1273     030C                     	;# 
  1274     030D                     	;# 
  1275     030E                     	;# 
  1276     0311                     	;# 
  1277     0311                     	;# 
  1278     0312                     	;# 
  1279     0313                     	;# 
  1280     0314                     	;# 
  1281     0315                     	;# 
  1282     0315                     	;# 
  1283     0316                     	;# 
  1284     0317                     	;# 
  1285     0318                     	;# 
  1286     038C                     	;# 
  1287     038D                     	;# 
  1288     038E                     	;# 
  1289     0391                     	;# 
  1290     0392                     	;# 
  1291     0393                     	;# 
  1292     0394                     	;# 
  1293     0395                     	;# 
  1294     0396                     	;# 
  1295     0397                     	;# 
  1296     0398                     	;# 
  1297     0399                     	;# 
  1298     039A                     	;# 
  1299     039C                     	;# 
  1300     039D                     	;# 
  1301     039E                     	;# 
  1302     039F                     	;# 
  1303     0411                     	;# 
  1304     0411                     	;# 
  1305     0412                     	;# 
  1306     0413                     	;# 
  1307     0414                     	;# 
  1308     0415                     	;# 
  1309     0416                     	;# 
  1310     0417                     	;# 
  1311     0418                     	;# 
  1312     0418                     	;# 
  1313     0419                     	;# 
  1314     041A                     	;# 
  1315     041B                     	;# 
  1316     041C                     	;# 
  1317     041D                     	;# 
  1318     041E                     	;# 
  1319     041F                     	;# 
  1320     0498                     	;# 
  1321     0498                     	;# 
  1322     0499                     	;# 
  1323     049A                     	;# 
  1324     049B                     	;# 
  1325     049B                     	;# 
  1326     049C                     	;# 
  1327     049D                     	;# 
  1328     049E                     	;# 
  1329     049F                     	;# 
  1330     0617                     	;# 
  1331     0618                     	;# 
  1332     0619                     	;# 
  1333     0619                     	;# 
  1334     061A                     	;# 
  1335     061B                     	;# 
  1336     061C                     	;# 
  1337     061C                     	;# 
  1338     061F                     	;# 
  1339     0691                     	;# 
  1340     0692                     	;# 
  1341     0693                     	;# 
  1342     0694                     	;# 
  1343     0695                     	;# 
  1344     0696                     	;# 
  1345     0697                     	;# 
  1346     0698                     	;# 
  1347     0699                     	;# 
  1348     0711                     	;# 
  1349     0712                     	;# 
  1350     0713                     	;# 
  1351     0714                     	;# 
  1352     0715                     	;# 
  1353     0716                     	;# 
  1354     0717                     	;# 
  1355     0718                     	;# 
  1356     0719                     	;# 
  1357     0891                     	;# 
  1358     0891                     	;# 
  1359     0891                     	;# 
  1360     0891                     	;# 
  1361     0891                     	;# 
  1362     0891                     	;# 
  1363     0892                     	;# 
  1364     0892                     	;# 
  1365     0892                     	;# 
  1366     0893                     	;# 
  1367     0893                     	;# 
  1368     0893                     	;# 
  1369     0893                     	;# 
  1370     0893                     	;# 
  1371     0893                     	;# 
  1372     0894                     	;# 
  1373     0894                     	;# 
  1374     0894                     	;# 
  1375     0895                     	;# 
  1376     0895                     	;# 
  1377     0895                     	;# 
  1378     0896                     	;# 
  1379     0896                     	;# 
  1380     0896                     	;# 
  1381     089B                     	;# 
  1382     0911                     	;# 
  1383     0912                     	;# 
  1384     0913                     	;# 
  1385     0914                     	;# 
  1386     0915                     	;# 
  1387     0916                     	;# 
  1388     0918                     	;# 
  1389     0919                     	;# 
  1390     091A                     	;# 
  1391     091B                     	;# 
  1392     091C                     	;# 
  1393     091D                     	;# 
  1394     091E                     	;# 
  1395     091F                     	;# 
  1396     0E0F                     	;# 
  1397     0E10                     	;# 
  1398     0E11                     	;# 
  1399     0E12                     	;# 
  1400     0E13                     	;# 
  1401     0E14                     	;# 
  1402     0E15                     	;# 
  1403     0E16                     	;# 
  1404     0E17                     	;# 
  1405     0E18                     	;# 
  1406     0E19                     	;# 
  1407     0E1A                     	;# 
  1408     0E1B                     	;# 
  1409     0E1C                     	;# 
  1410     0E1D                     	;# 
  1411     0E1E                     	;# 
  1412     0E1F                     	;# 
  1413     0E20                     	;# 
  1414     0E21                     	;# 
  1415     0E22                     	;# 
  1416     0E24                     	;# 
  1417     0E25                     	;# 
  1418     0E28                     	;# 
  1419     0E29                     	;# 
  1420     0E2A                     	;# 
  1421     0E2B                     	;# 
  1422     0E2C                     	;# 
  1423     0E2D                     	;# 
  1424     0E2E                     	;# 
  1425     0E2F                     	;# 
  1426     0E90                     	;# 
  1427     0E91                     	;# 
  1428     0E92                     	;# 
  1429     0E94                     	;# 
  1430     0E95                     	;# 
  1431     0E9C                     	;# 
  1432     0E9D                     	;# 
  1433     0E9E                     	;# 
  1434     0E9F                     	;# 
  1435     0EA0                     	;# 
  1436     0EA1                     	;# 
  1437     0EA2                     	;# 
  1438     0EA3                     	;# 
  1439     0EA4                     	;# 
  1440     0EA5                     	;# 
  1441     0EA6                     	;# 
  1442     0EA7                     	;# 
  1443     0F0F                     	;# 
  1444     0F10                     	;# 
  1445     0F11                     	;# 
  1446     0F12                     	;# 
  1447     0F13                     	;# 
  1448     0F14                     	;# 
  1449     0F15                     	;# 
  1450     0F16                     	;# 
  1451     0F17                     	;# 
  1452     0F18                     	;# 
  1453     0F19                     	;# 
  1454     0F1A                     	;# 
  1455     0F1B                     	;# 
  1456     0F1C                     	;# 
  1457     0F1D                     	;# 
  1458     0F1E                     	;# 
  1459     0F1F                     	;# 
  1460     0F20                     	;# 
  1461     0F21                     	;# 
  1462     0F22                     	;# 
  1463     0F23                     	;# 
  1464     0F24                     	;# 
  1465     0F25                     	;# 
  1466     0F26                     	;# 
  1467     0F27                     	;# 
  1468     0F28                     	;# 
  1469     0F29                     	;# 
  1470     0F2A                     	;# 
  1471     0F2B                     	;# 
  1472     0F2C                     	;# 
  1473     0F2D                     	;# 
  1474     0F2E                     	;# 
  1475     0F2F                     	;# 
  1476     0F30                     	;# 
  1477     0F31                     	;# 
  1478     0F32                     	;# 
  1479     0F33                     	;# 
  1480     0F34                     	;# 
  1481     0F35                     	;# 
  1482     0F36                     	;# 
  1483     0F37                     	;# 
  1484     0FE4                     	;# 
  1485     0FE5                     	;# 
  1486     0FE6                     	;# 
  1487     0FE7                     	;# 
  1488     0FE8                     	;# 
  1489     0FE9                     	;# 
  1490     0FEA                     	;# 
  1491     0FEB                     	;# 
  1492     0FED                     	;# 
  1493     0FEE                     	;# 
  1494     0FEF                     	;# 
  1495     0000                     	;# 
  1496     0001                     	;# 
  1497     0002                     	;# 
  1498     0003                     	;# 
  1499     0004                     	;# 
  1500     0005                     	;# 
  1501     0006                     	;# 
  1502     0007                     	;# 
  1503     0008                     	;# 
  1504     0009                     	;# 
  1505     000A                     	;# 
  1506     000B                     	;# 
  1507     000C                     	;# 
  1508     000D                     	;# 
  1509     000E                     	;# 
  1510     0010                     	;# 
  1511     0011                     	;# 
  1512     0012                     	;# 
  1513     0013                     	;# 
  1514     0014                     	;# 
  1515     0015                     	;# 
  1516     0015                     	;# 
  1517     0016                     	;# 
  1518     0016                     	;# 
  1519     0017                     	;# 
  1520     0018                     	;# 
  1521     0019                     	;# 
  1522     0019                     	;# 
  1523     001A                     	;# 
  1524     001B                     	;# 
  1525     001C                     	;# 
  1526     001D                     	;# 
  1527     001E                     	;# 
  1528     001F                     	;# 
  1529     008C                     	;# 
  1530     008D                     	;# 
  1531     008E                     	;# 
  1532     0090                     	;# 
  1533     0091                     	;# 
  1534     0092                     	;# 
  1535     0093                     	;# 
  1536     0094                     	;# 
  1537     0097                     	;# 
  1538     009B                     	;# 
  1539     009B                     	;# 
  1540     009C                     	;# 
  1541     009D                     	;# 
  1542     009E                     	;# 
  1543     009F                     	;# 
  1544     010C                     	;# 
  1545     010D                     	;# 
  1546     010E                     	;# 
  1547     0111                     	;# 
  1548     0112                     	;# 
  1549     0113                     	;# 
  1550     0114                     	;# 
  1551     0115                     	;# 
  1552     0116                     	;# 
  1553     0117                     	;# 
  1554     0118                     	;# 
  1555     0119                     	;# 
  1556     018C                     	;# 
  1557     018D                     	;# 
  1558     018E                     	;# 
  1559     0197                     	;# 
  1560     0199                     	;# 
  1561     0199                     	;# 
  1562     0199                     	;# 
  1563     019A                     	;# 
  1564     019A                     	;# 
  1565     019A                     	;# 
  1566     019B                     	;# 
  1567     019B                     	;# 
  1568     019B                     	;# 
  1569     019B                     	;# 
  1570     019B                     	;# 
  1571     019C                     	;# 
  1572     019C                     	;# 
  1573     019C                     	;# 
  1574     019D                     	;# 
  1575     019D                     	;# 
  1576     019D                     	;# 
  1577     019E                     	;# 
  1578     019E                     	;# 
  1579     019E                     	;# 
  1580     019F                     	;# 
  1581     019F                     	;# 
  1582     019F                     	;# 
  1583     019F                     	;# 
  1584     019F                     	;# 
  1585     020C                     	;# 
  1586     020D                     	;# 
  1587     020E                     	;# 
  1588     0211                     	;# 
  1589     0211                     	;# 
  1590     0212                     	;# 
  1591     0212                     	;# 
  1592     0213                     	;# 
  1593     0213                     	;# 
  1594     0214                     	;# 
  1595     0214                     	;# 
  1596     0215                     	;# 
  1597     0215                     	;# 
  1598     0215                     	;# 
  1599     0215                     	;# 
  1600     0216                     	;# 
  1601     0216                     	;# 
  1602     0217                     	;# 
  1603     0217                     	;# 
  1604     0219                     	;# 
  1605     021A                     	;# 
  1606     021B                     	;# 
  1607     021C                     	;# 
  1608     021D                     	;# 
  1609     021D                     	;# 
  1610     021E                     	;# 
  1611     021F                     	;# 
  1612     028C                     	;# 
  1613     028D                     	;# 
  1614     028E                     	;# 
  1615     0291                     	;# 
  1616     0291                     	;# 
  1617     0292                     	;# 
  1618     0293                     	;# 
  1619     0294                     	;# 
  1620     0295                     	;# 
  1621     0295                     	;# 
  1622     0296                     	;# 
  1623     0297                     	;# 
  1624     0298                     	;# 
  1625     029F                     	;# 
  1626     030C                     	;# 
  1627     030D                     	;# 
  1628     030E                     	;# 
  1629     0311                     	;# 
  1630     0311                     	;# 
  1631     0312                     	;# 
  1632     0313                     	;# 
  1633     0314                     	;# 
  1634     0315                     	;# 
  1635     0315                     	;# 
  1636     0316                     	;# 
  1637     0317                     	;# 
  1638     0318                     	;# 
  1639     038C                     	;# 
  1640     038D                     	;# 
  1641     038E                     	;# 
  1642     0391                     	;# 
  1643     0392                     	;# 
  1644     0393                     	;# 
  1645     0394                     	;# 
  1646     0395                     	;# 
  1647     0396                     	;# 
  1648     0397                     	;# 
  1649     0398                     	;# 
  1650     0399                     	;# 
  1651     039A                     	;# 
  1652     039C                     	;# 
  1653     039D                     	;# 
  1654     039E                     	;# 
  1655     039F                     	;# 
  1656     0411                     	;# 
  1657     0411                     	;# 
  1658     0412                     	;# 
  1659     0413                     	;# 
  1660     0414                     	;# 
  1661     0415                     	;# 
  1662     0416                     	;# 
  1663     0417                     	;# 
  1664     0418                     	;# 
  1665     0418                     	;# 
  1666     0419                     	;# 
  1667     041A                     	;# 
  1668     041B                     	;# 
  1669     041C                     	;# 
  1670     041D                     	;# 
  1671     041E                     	;# 
  1672     041F                     	;# 
  1673     0498                     	;# 
  1674     0498                     	;# 
  1675     0499                     	;# 
  1676     049A                     	;# 
  1677     049B                     	;# 
  1678     049B                     	;# 
  1679     049C                     	;# 
  1680     049D                     	;# 
  1681     049E                     	;# 
  1682     049F                     	;# 
  1683     0617                     	;# 
  1684     0618                     	;# 
  1685     0619                     	;# 
  1686     0619                     	;# 
  1687     061A                     	;# 
  1688     061B                     	;# 
  1689     061C                     	;# 
  1690     061C                     	;# 
  1691     061F                     	;# 
  1692     0691                     	;# 
  1693     0692                     	;# 
  1694     0693                     	;# 
  1695     0694                     	;# 
  1696     0695                     	;# 
  1697     0696                     	;# 
  1698     0697                     	;# 
  1699     0698                     	;# 
  1700     0699                     	;# 
  1701     0711                     	;# 
  1702     0712                     	;# 
  1703     0713                     	;# 
  1704     0714                     	;# 
  1705     0715                     	;# 
  1706     0716                     	;# 
  1707     0717                     	;# 
  1708     0718                     	;# 
  1709     0719                     	;# 
  1710     0891                     	;# 
  1711     0891                     	;# 
  1712     0891                     	;# 
  1713     0891                     	;# 
  1714     0891                     	;# 
  1715     0891                     	;# 
  1716     0892                     	;# 
  1717     0892                     	;# 
  1718     0892                     	;# 
  1719     0893                     	;# 
  1720     0893                     	;# 
  1721     0893                     	;# 
  1722     0893                     	;# 
  1723     0893                     	;# 
  1724     0893                     	;# 
  1725     0894                     	;# 
  1726     0894                     	;# 
  1727     0894                     	;# 
  1728     0895                     	;# 
  1729     0895                     	;# 
  1730     0895                     	;# 
  1731     0896                     	;# 
  1732     0896                     	;# 
  1733     0896                     	;# 
  1734     089B                     	;# 
  1735     0911                     	;# 
  1736     0912                     	;# 
  1737     0913                     	;# 
  1738     0914                     	;# 
  1739     0915                     	;# 
  1740     0916                     	;# 
  1741     0918                     	;# 
  1742     0919                     	;# 
  1743     091A                     	;# 
  1744     091B                     	;# 
  1745     091C                     	;# 
  1746     091D                     	;# 
  1747     091E                     	;# 
  1748     091F                     	;# 
  1749     0E0F                     	;# 
  1750     0E10                     	;# 
  1751     0E11                     	;# 
  1752     0E12                     	;# 
  1753     0E13                     	;# 
  1754     0E14                     	;# 
  1755     0E15                     	;# 
  1756     0E16                     	;# 
  1757     0E17                     	;# 
  1758     0E18                     	;# 
  1759     0E19                     	;# 
  1760     0E1A                     	;# 
  1761     0E1B                     	;# 
  1762     0E1C                     	;# 
  1763     0E1D                     	;# 
  1764     0E1E                     	;# 
  1765     0E1F                     	;# 
  1766     0E20                     	;# 
  1767     0E21                     	;# 
  1768     0E22                     	;# 
  1769     0E24                     	;# 
  1770     0E25                     	;# 
  1771     0E28                     	;# 
  1772     0E29                     	;# 
  1773     0E2A                     	;# 
  1774     0E2B                     	;# 
  1775     0E2C                     	;# 
  1776     0E2D                     	;# 
  1777     0E2E                     	;# 
  1778     0E2F                     	;# 
  1779     0E90                     	;# 
  1780     0E91                     	;# 
  1781     0E92                     	;# 
  1782     0E94                     	;# 
  1783     0E95                     	;# 
  1784     0E9C                     	;# 
  1785     0E9D                     	;# 
  1786     0E9E                     	;# 
  1787     0E9F                     	;# 
  1788     0EA0                     	;# 
  1789     0EA1                     	;# 
  1790     0EA2                     	;# 
  1791     0EA3                     	;# 
  1792     0EA4                     	;# 
  1793     0EA5                     	;# 
  1794     0EA6                     	;# 
  1795     0EA7                     	;# 
  1796     0F0F                     	;# 
  1797     0F10                     	;# 
  1798     0F11                     	;# 
  1799     0F12                     	;# 
  1800     0F13                     	;# 
  1801     0F14                     	;# 
  1802     0F15                     	;# 
  1803     0F16                     	;# 
  1804     0F17                     	;# 
  1805     0F18                     	;# 
  1806     0F19                     	;# 
  1807     0F1A                     	;# 
  1808     0F1B                     	;# 
  1809     0F1C                     	;# 
  1810     0F1D                     	;# 
  1811     0F1E                     	;# 
  1812     0F1F                     	;# 
  1813     0F20                     	;# 
  1814     0F21                     	;# 
  1815     0F22                     	;# 
  1816     0F23                     	;# 
  1817     0F24                     	;# 
  1818     0F25                     	;# 
  1819     0F26                     	;# 
  1820     0F27                     	;# 
  1821     0F28                     	;# 
  1822     0F29                     	;# 
  1823     0F2A                     	;# 
  1824     0F2B                     	;# 
  1825     0F2C                     	;# 
  1826     0F2D                     	;# 
  1827     0F2E                     	;# 
  1828     0F2F                     	;# 
  1829     0F30                     	;# 
  1830     0F31                     	;# 
  1831     0F32                     	;# 
  1832     0F33                     	;# 
  1833     0F34                     	;# 
  1834     0F35                     	;# 
  1835     0F36                     	;# 
  1836     0F37                     	;# 
  1837     0FE4                     	;# 
  1838     0FE5                     	;# 
  1839     0FE6                     	;# 
  1840     0FE7                     	;# 
  1841     0FE8                     	;# 
  1842     0FE9                     	;# 
  1843     0FEA                     	;# 
  1844     0FEB                     	;# 
  1845     0FED                     	;# 
  1846     0FEE                     	;# 
  1847     0FEF                     	;# 
  1848     0000                     	;# 
  1849     0001                     	;# 
  1850     0002                     	;# 
  1851     0003                     	;# 
  1852     0004                     	;# 
  1853     0005                     	;# 
  1854     0006                     	;# 
  1855     0007                     	;# 
  1856     0008                     	;# 
  1857     0009                     	;# 
  1858     000A                     	;# 
  1859     000B                     	;# 
  1860     000C                     	;# 
  1861     000D                     	;# 
  1862     000E                     	;# 
  1863     0010                     	;# 
  1864     0011                     	;# 
  1865     0012                     	;# 
  1866     0013                     	;# 
  1867     0014                     	;# 
  1868     0015                     	;# 
  1869     0015                     	;# 
  1870     0016                     	;# 
  1871     0016                     	;# 
  1872     0017                     	;# 
  1873     0018                     	;# 
  1874     0019                     	;# 
  1875     0019                     	;# 
  1876     001A                     	;# 
  1877     001B                     	;# 
  1878     001C                     	;# 
  1879     001D                     	;# 
  1880     001E                     	;# 
  1881     001F                     	;# 
  1882     008C                     	;# 
  1883     008D                     	;# 
  1884     008E                     	;# 
  1885     0090                     	;# 
  1886     0091                     	;# 
  1887     0092                     	;# 
  1888     0093                     	;# 
  1889     0094                     	;# 
  1890     0097                     	;# 
  1891     009B                     	;# 
  1892     009B                     	;# 
  1893     009C                     	;# 
  1894     009D                     	;# 
  1895     009E                     	;# 
  1896     009F                     	;# 
  1897     010C                     	;# 
  1898     010D                     	;# 
  1899     010E                     	;# 
  1900     0111                     	;# 
  1901     0112                     	;# 
  1902     0113                     	;# 
  1903     0114                     	;# 
  1904     0115                     	;# 
  1905     0116                     	;# 
  1906     0117                     	;# 
  1907     0118                     	;# 
  1908     0119                     	;# 
  1909     018C                     	;# 
  1910     018D                     	;# 
  1911     018E                     	;# 
  1912     0197                     	;# 
  1913     0199                     	;# 
  1914     0199                     	;# 
  1915     0199                     	;# 
  1916     019A                     	;# 
  1917     019A                     	;# 
  1918     019A                     	;# 
  1919     019B                     	;# 
  1920     019B                     	;# 
  1921     019B                     	;# 
  1922     019B                     	;# 
  1923     019B                     	;# 
  1924     019C                     	;# 
  1925     019C                     	;# 
  1926     019C                     	;# 
  1927     019D                     	;# 
  1928     019D                     	;# 
  1929     019D                     	;# 
  1930     019E                     	;# 
  1931     019E                     	;# 
  1932     019E                     	;# 
  1933     019F                     	;# 
  1934     019F                     	;# 
  1935     019F                     	;# 
  1936     019F                     	;# 
  1937     019F                     	;# 
  1938     020C                     	;# 
  1939     020D                     	;# 
  1940     020E                     	;# 
  1941     0211                     	;# 
  1942     0211                     	;# 
  1943     0212                     	;# 
  1944     0212                     	;# 
  1945     0213                     	;# 
  1946     0213                     	;# 
  1947     0214                     	;# 
  1948     0214                     	;# 
  1949     0215                     	;# 
  1950     0215                     	;# 
  1951     0215                     	;# 
  1952     0215                     	;# 
  1953     0216                     	;# 
  1954     0216                     	;# 
  1955     0217                     	;# 
  1956     0217                     	;# 
  1957     0219                     	;# 
  1958     021A                     	;# 
  1959     021B                     	;# 
  1960     021C                     	;# 
  1961     021D                     	;# 
  1962     021D                     	;# 
  1963     021E                     	;# 
  1964     021F                     	;# 
  1965     028C                     	;# 
  1966     028D                     	;# 
  1967     028E                     	;# 
  1968     0291                     	;# 
  1969     0291                     	;# 
  1970     0292                     	;# 
  1971     0293                     	;# 
  1972     0294                     	;# 
  1973     0295                     	;# 
  1974     0295                     	;# 
  1975     0296                     	;# 
  1976     0297                     	;# 
  1977     0298                     	;# 
  1978     029F                     	;# 
  1979     030C                     	;# 
  1980     030D                     	;# 
  1981     030E                     	;# 
  1982     0311                     	;# 
  1983     0311                     	;# 
  1984     0312                     	;# 
  1985     0313                     	;# 
  1986     0314                     	;# 
  1987     0315                     	;# 
  1988     0315                     	;# 
  1989     0316                     	;# 
  1990     0317                     	;# 
  1991     0318                     	;# 
  1992     038C                     	;# 
  1993     038D                     	;# 
  1994     038E                     	;# 
  1995     0391                     	;# 
  1996     0392                     	;# 
  1997     0393                     	;# 
  1998     0394                     	;# 
  1999     0395                     	;# 
  2000     0396                     	;# 
  2001     0397                     	;# 
  2002     0398                     	;# 
  2003     0399                     	;# 
  2004     039A                     	;# 
  2005     039C                     	;# 
  2006     039D                     	;# 
  2007     039E                     	;# 
  2008     039F                     	;# 
  2009     0411                     	;# 
  2010     0411                     	;# 
  2011     0412                     	;# 
  2012     0413                     	;# 
  2013     0414                     	;# 
  2014     0415                     	;# 
  2015     0416                     	;# 
  2016     0417                     	;# 
  2017     0418                     	;# 
  2018     0418                     	;# 
  2019     0419                     	;# 
  2020     041A                     	;# 
  2021     041B                     	;# 
  2022     041C                     	;# 
  2023     041D                     	;# 
  2024     041E                     	;# 
  2025     041F                     	;# 
  2026     0498                     	;# 
  2027     0498                     	;# 
  2028     0499                     	;# 
  2029     049A                     	;# 
  2030     049B                     	;# 
  2031     049B                     	;# 
  2032     049C                     	;# 
  2033     049D                     	;# 
  2034     049E                     	;# 
  2035     049F                     	;# 
  2036     0617                     	;# 
  2037     0618                     	;# 
  2038     0619                     	;# 
  2039     0619                     	;# 
  2040     061A                     	;# 
  2041     061B                     	;# 
  2042     061C                     	;# 
  2043     061C                     	;# 
  2044     061F                     	;# 
  2045     0691                     	;# 
  2046     0692                     	;# 
  2047     0693                     	;# 
  2048     0694                     	;# 
  2049     0695                     	;# 
  2050     0696                     	;# 
  2051     0697                     	;# 
  2052     0698                     	;# 
  2053     0699                     	;# 
  2054     0711                     	;# 
  2055     0712                     	;# 
  2056     0713                     	;# 
  2057     0714                     	;# 
  2058     0715                     	;# 
  2059     0716                     	;# 
  2060     0717                     	;# 
  2061     0718                     	;# 
  2062     0719                     	;# 
  2063     0891                     	;# 
  2064     0891                     	;# 
  2065     0891                     	;# 
  2066     0891                     	;# 
  2067     0891                     	;# 
  2068     0891                     	;# 
  2069     0892                     	;# 
  2070     0892                     	;# 
  2071     0892                     	;# 
  2072     0893                     	;# 
  2073     0893                     	;# 
  2074     0893                     	;# 
  2075     0893                     	;# 
  2076     0893                     	;# 
  2077     0893                     	;# 
  2078     0894                     	;# 
  2079     0894                     	;# 
  2080     0894                     	;# 
  2081     0895                     	;# 
  2082     0895                     	;# 
  2083     0895                     	;# 
  2084     0896                     	;# 
  2085     0896                     	;# 
  2086     0896                     	;# 
  2087     089B                     	;# 
  2088     0911                     	;# 
  2089     0912                     	;# 
  2090     0913                     	;# 
  2091     0914                     	;# 
  2092     0915                     	;# 
  2093     0916                     	;# 
  2094     0918                     	;# 
  2095     0919                     	;# 
  2096     091A                     	;# 
  2097     091B                     	;# 
  2098     091C                     	;# 
  2099     091D                     	;# 
  2100     091E                     	;# 
  2101     091F                     	;# 
  2102     0E0F                     	;# 
  2103     0E10                     	;# 
  2104     0E11                     	;# 
  2105     0E12                     	;# 
  2106     0E13                     	;# 
  2107     0E14                     	;# 
  2108     0E15                     	;# 
  2109     0E16                     	;# 
  2110     0E17                     	;# 
  2111     0E18                     	;# 
  2112     0E19                     	;# 
  2113     0E1A                     	;# 
  2114     0E1B                     	;# 
  2115     0E1C                     	;# 
  2116     0E1D                     	;# 
  2117     0E1E                     	;# 
  2118     0E1F                     	;# 
  2119     0E20                     	;# 
  2120     0E21                     	;# 
  2121     0E22                     	;# 
  2122     0E24                     	;# 
  2123     0E25                     	;# 
  2124     0E28                     	;# 
  2125     0E29                     	;# 
  2126     0E2A                     	;# 
  2127     0E2B                     	;# 
  2128     0E2C                     	;# 
  2129     0E2D                     	;# 
  2130     0E2E                     	;# 
  2131     0E2F                     	;# 
  2132     0E90                     	;# 
  2133     0E91                     	;# 
  2134     0E92                     	;# 
  2135     0E94                     	;# 
  2136     0E95                     	;# 
  2137     0E9C                     	;# 
  2138     0E9D                     	;# 
  2139     0E9E                     	;# 
  2140     0E9F                     	;# 
  2141     0EA0                     	;# 
  2142     0EA1                     	;# 
  2143     0EA2                     	;# 
  2144     0EA3                     	;# 
  2145     0EA4                     	;# 
  2146     0EA5                     	;# 
  2147     0EA6                     	;# 
  2148     0EA7                     	;# 
  2149     0F0F                     	;# 
  2150     0F10                     	;# 
  2151     0F11                     	;# 
  2152     0F12                     	;# 
  2153     0F13                     	;# 
  2154     0F14                     	;# 
  2155     0F15                     	;# 
  2156     0F16                     	;# 
  2157     0F17                     	;# 
  2158     0F18                     	;# 
  2159     0F19                     	;# 
  2160     0F1A                     	;# 
  2161     0F1B                     	;# 
  2162     0F1C                     	;# 
  2163     0F1D                     	;# 
  2164     0F1E                     	;# 
  2165     0F1F                     	;# 
  2166     0F20                     	;# 
  2167     0F21                     	;# 
  2168     0F22                     	;# 
  2169     0F23                     	;# 
  2170     0F24                     	;# 
  2171     0F25                     	;# 
  2172     0F26                     	;# 
  2173     0F27                     	;# 
  2174     0F28                     	;# 
  2175     0F29                     	;# 
  2176     0F2A                     	;# 
  2177     0F2B                     	;# 
  2178     0F2C                     	;# 
  2179     0F2D                     	;# 
  2180     0F2E                     	;# 
  2181     0F2F                     	;# 
  2182     0F30                     	;# 
  2183     0F31                     	;# 
  2184     0F32                     	;# 
  2185     0F33                     	;# 
  2186     0F34                     	;# 
  2187     0F35                     	;# 
  2188     0F36                     	;# 
  2189     0F37                     	;# 
  2190     0FE4                     	;# 
  2191     0FE5                     	;# 
  2192     0FE6                     	;# 
  2193     0FE7                     	;# 
  2194     0FE8                     	;# 
  2195     0FE9                     	;# 
  2196     0FEA                     	;# 
  2197     0FEB                     	;# 
  2198     0FED                     	;# 
  2199     0FEE                     	;# 
  2200     0FEF                     	;# 
  2201     0000                     	;# 
  2202     0001                     	;# 
  2203     0002                     	;# 
  2204     0003                     	;# 
  2205     0004                     	;# 
  2206     0005                     	;# 
  2207     0006                     	;# 
  2208     0007                     	;# 
  2209     0008                     	;# 
  2210     0009                     	;# 
  2211     000A                     	;# 
  2212     000B                     	;# 
  2213     000C                     	;# 
  2214     000D                     	;# 
  2215     000E                     	;# 
  2216     0010                     	;# 
  2217     0011                     	;# 
  2218     0012                     	;# 
  2219     0013                     	;# 
  2220     0014                     	;# 
  2221     0015                     	;# 
  2222     0015                     	;# 
  2223     0016                     	;# 
  2224     0016                     	;# 
  2225     0017                     	;# 
  2226     0018                     	;# 
  2227     0019                     	;# 
  2228     0019                     	;# 
  2229     001A                     	;# 
  2230     001B                     	;# 
  2231     001C                     	;# 
  2232     001D                     	;# 
  2233     001E                     	;# 
  2234     001F                     	;# 
  2235     008C                     	;# 
  2236     008D                     	;# 
  2237     008E                     	;# 
  2238     0090                     	;# 
  2239     0091                     	;# 
  2240     0092                     	;# 
  2241     0093                     	;# 
  2242     0094                     	;# 
  2243     0097                     	;# 
  2244     009B                     	;# 
  2245     009B                     	;# 
  2246     009C                     	;# 
  2247     009D                     	;# 
  2248     009E                     	;# 
  2249     009F                     	;# 
  2250     010C                     	;# 
  2251     010D                     	;# 
  2252     010E                     	;# 
  2253     0111                     	;# 
  2254     0112                     	;# 
  2255     0113                     	;# 
  2256     0114                     	;# 
  2257     0115                     	;# 
  2258     0116                     	;# 
  2259     0117                     	;# 
  2260     0118                     	;# 
  2261     0119                     	;# 
  2262     018C                     	;# 
  2263     018D                     	;# 
  2264     018E                     	;# 
  2265     0197                     	;# 
  2266     0199                     	;# 
  2267     0199                     	;# 
  2268     0199                     	;# 
  2269     019A                     	;# 
  2270     019A                     	;# 
  2271     019A                     	;# 
  2272     019B                     	;# 
  2273     019B                     	;# 
  2274     019B                     	;# 
  2275     019B                     	;# 
  2276     019B                     	;# 
  2277     019C                     	;# 
  2278     019C                     	;# 
  2279     019C                     	;# 
  2280     019D                     	;# 
  2281     019D                     	;# 
  2282     019D                     	;# 
  2283     019E                     	;# 
  2284     019E                     	;# 
  2285     019E                     	;# 
  2286     019F                     	;# 
  2287     019F                     	;# 
  2288     019F                     	;# 
  2289     019F                     	;# 
  2290     019F                     	;# 
  2291     020C                     	;# 
  2292     020D                     	;# 
  2293     020E                     	;# 
  2294     0211                     	;# 
  2295     0211                     	;# 
  2296     0212                     	;# 
  2297     0212                     	;# 
  2298     0213                     	;# 
  2299     0213                     	;# 
  2300     0214                     	;# 
  2301     0214                     	;# 
  2302     0215                     	;# 
  2303     0215                     	;# 
  2304     0215                     	;# 
  2305     0215                     	;# 
  2306     0216                     	;# 
  2307     0216                     	;# 
  2308     0217                     	;# 
  2309     0217                     	;# 
  2310     0219                     	;# 
  2311     021A                     	;# 
  2312     021B                     	;# 
  2313     021C                     	;# 
  2314     021D                     	;# 
  2315     021D                     	;# 
  2316     021E                     	;# 
  2317     021F                     	;# 
  2318     028C                     	;# 
  2319     028D                     	;# 
  2320     028E                     	;# 
  2321     0291                     	;# 
  2322     0291                     	;# 
  2323     0292                     	;# 
  2324     0293                     	;# 
  2325     0294                     	;# 
  2326     0295                     	;# 
  2327     0295                     	;# 
  2328     0296                     	;# 
  2329     0297                     	;# 
  2330     0298                     	;# 
  2331     029F                     	;# 
  2332     030C                     	;# 
  2333     030D                     	;# 
  2334     030E                     	;# 
  2335     0311                     	;# 
  2336     0311                     	;# 
  2337     0312                     	;# 
  2338     0313                     	;# 
  2339     0314                     	;# 
  2340     0315                     	;# 
  2341     0315                     	;# 
  2342     0316                     	;# 
  2343     0317                     	;# 
  2344     0318                     	;# 
  2345     038C                     	;# 
  2346     038D                     	;# 
  2347     038E                     	;# 
  2348     0391                     	;# 
  2349     0392                     	;# 
  2350     0393                     	;# 
  2351     0394                     	;# 
  2352     0395                     	;# 
  2353     0396                     	;# 
  2354     0397                     	;# 
  2355     0398                     	;# 
  2356     0399                     	;# 
  2357     039A                     	;# 
  2358     039C                     	;# 
  2359     039D                     	;# 
  2360     039E                     	;# 
  2361     039F                     	;# 
  2362     0411                     	;# 
  2363     0411                     	;# 
  2364     0412                     	;# 
  2365     0413                     	;# 
  2366     0414                     	;# 
  2367     0415                     	;# 
  2368     0416                     	;# 
  2369     0417                     	;# 
  2370     0418                     	;# 
  2371     0418                     	;# 
  2372     0419                     	;# 
  2373     041A                     	;# 
  2374     041B                     	;# 
  2375     041C                     	;# 
  2376     041D                     	;# 
  2377     041E                     	;# 
  2378     041F                     	;# 
  2379     0498                     	;# 
  2380     0498                     	;# 
  2381     0499                     	;# 
  2382     049A                     	;# 
  2383     049B                     	;# 
  2384     049B                     	;# 
  2385     049C                     	;# 
  2386     049D                     	;# 
  2387     049E                     	;# 
  2388     049F                     	;# 
  2389     0617                     	;# 
  2390     0618                     	;# 
  2391     0619                     	;# 
  2392     0619                     	;# 
  2393     061A                     	;# 
  2394     061B                     	;# 
  2395     061C                     	;# 
  2396     061C                     	;# 
  2397     061F                     	;# 
  2398     0691                     	;# 
  2399     0692                     	;# 
  2400     0693                     	;# 
  2401     0694                     	;# 
  2402     0695                     	;# 
  2403     0696                     	;# 
  2404     0697                     	;# 
  2405     0698                     	;# 
  2406     0699                     	;# 
  2407     0711                     	;# 
  2408     0712                     	;# 
  2409     0713                     	;# 
  2410     0714                     	;# 
  2411     0715                     	;# 
  2412     0716                     	;# 
  2413     0717                     	;# 
  2414     0718                     	;# 
  2415     0719                     	;# 
  2416     0891                     	;# 
  2417     0891                     	;# 
  2418     0891                     	;# 
  2419     0891                     	;# 
  2420     0891                     	;# 
  2421     0891                     	;# 
  2422     0892                     	;# 
  2423     0892                     	;# 
  2424     0892                     	;# 
  2425     0893                     	;# 
  2426     0893                     	;# 
  2427     0893                     	;# 
  2428     0893                     	;# 
  2429     0893                     	;# 
  2430     0893                     	;# 
  2431     0894                     	;# 
  2432     0894                     	;# 
  2433     0894                     	;# 
  2434     0895                     	;# 
  2435     0895                     	;# 
  2436     0895                     	;# 
  2437     0896                     	;# 
  2438     0896                     	;# 
  2439     0896                     	;# 
  2440     089B                     	;# 
  2441     0911                     	;# 
  2442     0912                     	;# 
  2443     0913                     	;# 
  2444     0914                     	;# 
  2445     0915                     	;# 
  2446     0916                     	;# 
  2447     0918                     	;# 
  2448     0919                     	;# 
  2449     091A                     	;# 
  2450     091B                     	;# 
  2451     091C                     	;# 
  2452     091D                     	;# 
  2453     091E                     	;# 
  2454     091F                     	;# 
  2455     0E0F                     	;# 
  2456     0E10                     	;# 
  2457     0E11                     	;# 
  2458     0E12                     	;# 
  2459     0E13                     	;# 
  2460     0E14                     	;# 
  2461     0E15                     	;# 
  2462     0E16                     	;# 
  2463     0E17                     	;# 
  2464     0E18                     	;# 
  2465     0E19                     	;# 
  2466     0E1A                     	;# 
  2467     0E1B                     	;# 
  2468     0E1C                     	;# 
  2469     0E1D                     	;# 
  2470     0E1E                     	;# 
  2471     0E1F                     	;# 
  2472     0E20                     	;# 
  2473     0E21                     	;# 
  2474     0E22                     	;# 
  2475     0E24                     	;# 
  2476     0E25                     	;# 
  2477     0E28                     	;# 
  2478     0E29                     	;# 
  2479     0E2A                     	;# 
  2480     0E2B                     	;# 
  2481     0E2C                     	;# 
  2482     0E2D                     	;# 
  2483     0E2E                     	;# 
  2484     0E2F                     	;# 
  2485     0E90                     	;# 
  2486     0E91                     	;# 
  2487     0E92                     	;# 
  2488     0E94                     	;# 
  2489     0E95                     	;# 
  2490     0E9C                     	;# 
  2491     0E9D                     	;# 
  2492     0E9E                     	;# 
  2493     0E9F                     	;# 
  2494     0EA0                     	;# 
  2495     0EA1                     	;# 
  2496     0EA2                     	;# 
  2497     0EA3                     	;# 
  2498     0EA4                     	;# 
  2499     0EA5                     	;# 
  2500     0EA6                     	;# 
  2501     0EA7                     	;# 
  2502     0F0F                     	;# 
  2503     0F10                     	;# 
  2504     0F11                     	;# 
  2505     0F12                     	;# 
  2506     0F13                     	;# 
  2507     0F14                     	;# 
  2508     0F15                     	;# 
  2509     0F16                     	;# 
  2510     0F17                     	;# 
  2511     0F18                     	;# 
  2512     0F19                     	;# 
  2513     0F1A                     	;# 
  2514     0F1B                     	;# 
  2515     0F1C                     	;# 
  2516     0F1D                     	;# 
  2517     0F1E                     	;# 
  2518     0F1F                     	;# 
  2519     0F20                     	;# 
  2520     0F21                     	;# 
  2521     0F22                     	;# 
  2522     0F23                     	;# 
  2523     0F24                     	;# 
  2524     0F25                     	;# 
  2525     0F26                     	;# 
  2526     0F27                     	;# 
  2527     0F28                     	;# 
  2528     0F29                     	;# 
  2529     0F2A                     	;# 
  2530     0F2B                     	;# 
  2531     0F2C                     	;# 
  2532     0F2D                     	;# 
  2533     0F2E                     	;# 
  2534     0F2F                     	;# 
  2535     0F30                     	;# 
  2536     0F31                     	;# 
  2537     0F32                     	;# 
  2538     0F33                     	;# 
  2539     0F34                     	;# 
  2540     0F35                     	;# 
  2541     0F36                     	;# 
  2542     0F37                     	;# 
  2543     0FE4                     	;# 
  2544     0FE5                     	;# 
  2545     0FE6                     	;# 
  2546     0FE7                     	;# 
  2547     0FE8                     	;# 
  2548     0FE9                     	;# 
  2549     0FEA                     	;# 
  2550     0FEB                     	;# 
  2551     0FED                     	;# 
  2552     0FEE                     	;# 
  2553     0FEF                     	;# 
  2554     0000                     	;# 
  2555     0001                     	;# 
  2556     0002                     	;# 
  2557     0003                     	;# 
  2558     0004                     	;# 
  2559     0005                     	;# 
  2560     0006                     	;# 
  2561     0007                     	;# 
  2562     0008                     	;# 
  2563     0009                     	;# 
  2564     000A                     	;# 
  2565     000B                     	;# 
  2566     000C                     	;# 
  2567     000D                     	;# 
  2568     000E                     	;# 
  2569     0010                     	;# 
  2570     0011                     	;# 
  2571     0012                     	;# 
  2572     0013                     	;# 
  2573     0014                     	;# 
  2574     0015                     	;# 
  2575     0015                     	;# 
  2576     0016                     	;# 
  2577     0016                     	;# 
  2578     0017                     	;# 
  2579     0018                     	;# 
  2580     0019                     	;# 
  2581     0019                     	;# 
  2582     001A                     	;# 
  2583     001B                     	;# 
  2584     001C                     	;# 
  2585     001D                     	;# 
  2586     001E                     	;# 
  2587     001F                     	;# 
  2588     008C                     	;# 
  2589     008D                     	;# 
  2590     008E                     	;# 
  2591     0090                     	;# 
  2592     0091                     	;# 
  2593     0092                     	;# 
  2594     0093                     	;# 
  2595     0094                     	;# 
  2596     0097                     	;# 
  2597     009B                     	;# 
  2598     009B                     	;# 
  2599     009C                     	;# 
  2600     009D                     	;# 
  2601     009E                     	;# 
  2602     009F                     	;# 
  2603     010C                     	;# 
  2604     010D                     	;# 
  2605     010E                     	;# 
  2606     0111                     	;# 
  2607     0112                     	;# 
  2608     0113                     	;# 
  2609     0114                     	;# 
  2610     0115                     	;# 
  2611     0116                     	;# 
  2612     0117                     	;# 
  2613     0118                     	;# 
  2614     0119                     	;# 
  2615     018C                     	;# 
  2616     018D                     	;# 
  2617     018E                     	;# 
  2618     0197                     	;# 
  2619     0199                     	;# 
  2620     0199                     	;# 
  2621     0199                     	;# 
  2622     019A                     	;# 
  2623     019A                     	;# 
  2624     019A                     	;# 
  2625     019B                     	;# 
  2626     019B                     	;# 
  2627     019B                     	;# 
  2628     019B                     	;# 
  2629     019B                     	;# 
  2630     019C                     	;# 
  2631     019C                     	;# 
  2632     019C                     	;# 
  2633     019D                     	;# 
  2634     019D                     	;# 
  2635     019D                     	;# 
  2636     019E                     	;# 
  2637     019E                     	;# 
  2638     019E                     	;# 
  2639     019F                     	;# 
  2640     019F                     	;# 
  2641     019F                     	;# 
  2642     019F                     	;# 
  2643     019F                     	;# 
  2644     020C                     	;# 
  2645     020D                     	;# 
  2646     020E                     	;# 
  2647     0211                     	;# 
  2648     0211                     	;# 
  2649     0212                     	;# 
  2650     0212                     	;# 
  2651     0213                     	;# 
  2652     0213                     	;# 
  2653     0214                     	;# 
  2654     0214                     	;# 
  2655     0215                     	;# 
  2656     0215                     	;# 
  2657     0215                     	;# 
  2658     0215                     	;# 
  2659     0216                     	;# 
  2660     0216                     	;# 
  2661     0217                     	;# 
  2662     0217                     	;# 
  2663     0219                     	;# 
  2664     021A                     	;# 
  2665     021B                     	;# 
  2666     021C                     	;# 
  2667     021D                     	;# 
  2668     021D                     	;# 
  2669     021E                     	;# 
  2670     021F                     	;# 
  2671     028C                     	;# 
  2672     028D                     	;# 
  2673     028E                     	;# 
  2674     0291                     	;# 
  2675     0291                     	;# 
  2676     0292                     	;# 
  2677     0293                     	;# 
  2678     0294                     	;# 
  2679     0295                     	;# 
  2680     0295                     	;# 
  2681     0296                     	;# 
  2682     0297                     	;# 
  2683     0298                     	;# 
  2684     029F                     	;# 
  2685     030C                     	;# 
  2686     030D                     	;# 
  2687     030E                     	;# 
  2688     0311                     	;# 
  2689     0311                     	;# 
  2690     0312                     	;# 
  2691     0313                     	;# 
  2692     0314                     	;# 
  2693     0315                     	;# 
  2694     0315                     	;# 
  2695     0316                     	;# 
  2696     0317                     	;# 
  2697     0318                     	;# 
  2698     038C                     	;# 
  2699     038D                     	;# 
  2700     038E                     	;# 
  2701     0391                     	;# 
  2702     0392                     	;# 
  2703     0393                     	;# 
  2704     0394                     	;# 
  2705     0395                     	;# 
  2706     0396                     	;# 
  2707     0397                     	;# 
  2708     0398                     	;# 
  2709     0399                     	;# 
  2710     039A                     	;# 
  2711     039C                     	;# 
  2712     039D                     	;# 
  2713     039E                     	;# 
  2714     039F                     	;# 
  2715     0411                     	;# 
  2716     0411                     	;# 
  2717     0412                     	;# 
  2718     0413                     	;# 
  2719     0414                     	;# 
  2720     0415                     	;# 
  2721     0416                     	;# 
  2722     0417                     	;# 
  2723     0418                     	;# 
  2724     0418                     	;# 
  2725     0419                     	;# 
  2726     041A                     	;# 
  2727     041B                     	;# 
  2728     041C                     	;# 
  2729     041D                     	;# 
  2730     041E                     	;# 
  2731     041F                     	;# 
  2732     0498                     	;# 
  2733     0498                     	;# 
  2734     0499                     	;# 
  2735     049A                     	;# 
  2736     049B                     	;# 
  2737     049B                     	;# 
  2738     049C                     	;# 
  2739     049D                     	;# 
  2740     049E                     	;# 
  2741     049F                     	;# 
  2742     0617                     	;# 
  2743     0618                     	;# 
  2744     0619                     	;# 
  2745     0619                     	;# 
  2746     061A                     	;# 
  2747     061B                     	;# 
  2748     061C                     	;# 
  2749     061C                     	;# 
  2750     061F                     	;# 
  2751     0691                     	;# 
  2752     0692                     	;# 
  2753     0693                     	;# 
  2754     0694                     	;# 
  2755     0695                     	;# 
  2756     0696                     	;# 
  2757     0697                     	;# 
  2758     0698                     	;# 
  2759     0699                     	;# 
  2760     0711                     	;# 
  2761     0712                     	;# 
  2762     0713                     	;# 
  2763     0714                     	;# 
  2764     0715                     	;# 
  2765     0716                     	;# 
  2766     0717                     	;# 
  2767     0718                     	;# 
  2768     0719                     	;# 
  2769     0891                     	;# 
  2770     0891                     	;# 
  2771     0891                     	;# 
  2772     0891                     	;# 
  2773     0891                     	;# 
  2774     0891                     	;# 
  2775     0892                     	;# 
  2776     0892                     	;# 
  2777     0892                     	;# 
  2778     0893                     	;# 
  2779     0893                     	;# 
  2780     0893                     	;# 
  2781     0893                     	;# 
  2782     0893                     	;# 
  2783     0893                     	;# 
  2784     0894                     	;# 
  2785     0894                     	;# 
  2786     0894                     	;# 
  2787     0895                     	;# 
  2788     0895                     	;# 
  2789     0895                     	;# 
  2790     0896                     	;# 
  2791     0896                     	;# 
  2792     0896                     	;# 
  2793     089B                     	;# 
  2794     0911                     	;# 
  2795     0912                     	;# 
  2796     0913                     	;# 
  2797     0914                     	;# 
  2798     0915                     	;# 
  2799     0916                     	;# 
  2800     0918                     	;# 
  2801     0919                     	;# 
  2802     091A                     	;# 
  2803     091B                     	;# 
  2804     091C                     	;# 
  2805     091D                     	;# 
  2806     091E                     	;# 
  2807     091F                     	;# 
  2808     0E0F                     	;# 
  2809     0E10                     	;# 
  2810     0E11                     	;# 
  2811     0E12                     	;# 
  2812     0E13                     	;# 
  2813     0E14                     	;# 
  2814     0E15                     	;# 
  2815     0E16                     	;# 
  2816     0E17                     	;# 
  2817     0E18                     	;# 
  2818     0E19                     	;# 
  2819     0E1A                     	;# 
  2820     0E1B                     	;# 
  2821     0E1C                     	;# 
  2822     0E1D                     	;# 
  2823     0E1E                     	;# 
  2824     0E1F                     	;# 
  2825     0E20                     	;# 
  2826     0E21                     	;# 
  2827     0E22                     	;# 
  2828     0E24                     	;# 
  2829     0E25                     	;# 
  2830     0E28                     	;# 
  2831     0E29                     	;# 
  2832     0E2A                     	;# 
  2833     0E2B                     	;# 
  2834     0E2C                     	;# 
  2835     0E2D                     	;# 
  2836     0E2E                     	;# 
  2837     0E2F                     	;# 
  2838     0E90                     	;# 
  2839     0E91                     	;# 
  2840     0E92                     	;# 
  2841     0E94                     	;# 
  2842     0E95                     	;# 
  2843     0E9C                     	;# 
  2844     0E9D                     	;# 
  2845     0E9E                     	;# 
  2846     0E9F                     	;# 
  2847     0EA0                     	;# 
  2848     0EA1                     	;# 
  2849     0EA2                     	;# 
  2850     0EA3                     	;# 
  2851     0EA4                     	;# 
  2852     0EA5                     	;# 
  2853     0EA6                     	;# 
  2854     0EA7                     	;# 
  2855     0F0F                     	;# 
  2856     0F10                     	;# 
  2857     0F11                     	;# 
  2858     0F12                     	;# 
  2859     0F13                     	;# 
  2860     0F14                     	;# 
  2861     0F15                     	;# 
  2862     0F16                     	;# 
  2863     0F17                     	;# 
  2864     0F18                     	;# 
  2865     0F19                     	;# 
  2866     0F1A                     	;# 
  2867     0F1B                     	;# 
  2868     0F1C                     	;# 
  2869     0F1D                     	;# 
  2870     0F1E                     	;# 
  2871     0F1F                     	;# 
  2872     0F20                     	;# 
  2873     0F21                     	;# 
  2874     0F22                     	;# 
  2875     0F23                     	;# 
  2876     0F24                     	;# 
  2877     0F25                     	;# 
  2878     0F26                     	;# 
  2879     0F27                     	;# 
  2880     0F28                     	;# 
  2881     0F29                     	;# 
  2882     0F2A                     	;# 
  2883     0F2B                     	;# 
  2884     0F2C                     	;# 
  2885     0F2D                     	;# 
  2886     0F2E                     	;# 
  2887     0F2F                     	;# 
  2888     0F30                     	;# 
  2889     0F31                     	;# 
  2890     0F32                     	;# 
  2891     0F33                     	;# 
  2892     0F34                     	;# 
  2893     0F35                     	;# 
  2894     0F36                     	;# 
  2895     0F37                     	;# 
  2896     0FE4                     	;# 
  2897     0FE5                     	;# 
  2898     0FE6                     	;# 
  2899     0FE7                     	;# 
  2900     0FE8                     	;# 
  2901     0FE9                     	;# 
  2902     0FEA                     	;# 
  2903     0FEB                     	;# 
  2904     0FED                     	;# 
  2905     0FEE                     	;# 
  2906     0FEF                     	;# 
  2907     0000                     	;# 
  2908     0001                     	;# 
  2909     0002                     	;# 
  2910     0003                     	;# 
  2911     0004                     	;# 
  2912     0005                     	;# 
  2913     0006                     	;# 
  2914     0007                     	;# 
  2915     0008                     	;# 
  2916     0009                     	;# 
  2917     000A                     	;# 
  2918     000B                     	;# 
  2919     000C                     	;# 
  2920     000D                     	;# 
  2921     000E                     	;# 
  2922     0010                     	;# 
  2923     0011                     	;# 
  2924     0012                     	;# 
  2925     0013                     	;# 
  2926     0014                     	;# 
  2927     0015                     	;# 
  2928     0015                     	;# 
  2929     0016                     	;# 
  2930     0016                     	;# 
  2931     0017                     	;# 
  2932     0018                     	;# 
  2933     0019                     	;# 
  2934     0019                     	;# 
  2935     001A                     	;# 
  2936     001B                     	;# 
  2937     001C                     	;# 
  2938     001D                     	;# 
  2939     001E                     	;# 
  2940     001F                     	;# 
  2941     008C                     	;# 
  2942     008D                     	;# 
  2943     008E                     	;# 
  2944     0090                     	;# 
  2945     0091                     	;# 
  2946     0092                     	;# 
  2947     0093                     	;# 
  2948     0094                     	;# 
  2949     0097                     	;# 
  2950     009B                     	;# 
  2951     009B                     	;# 
  2952     009C                     	;# 
  2953     009D                     	;# 
  2954     009E                     	;# 
  2955     009F                     	;# 
  2956     010C                     	;# 
  2957     010D                     	;# 
  2958     010E                     	;# 
  2959     0111                     	;# 
  2960     0112                     	;# 
  2961     0113                     	;# 
  2962     0114                     	;# 
  2963     0115                     	;# 
  2964     0116                     	;# 
  2965     0117                     	;# 
  2966     0118                     	;# 
  2967     0119                     	;# 
  2968     018C                     	;# 
  2969     018D                     	;# 
  2970     018E                     	;# 
  2971     0197                     	;# 
  2972     0199                     	;# 
  2973     0199                     	;# 
  2974     0199                     	;# 
  2975     019A                     	;# 
  2976     019A                     	;# 
  2977     019A                     	;# 
  2978     019B                     	;# 
  2979     019B                     	;# 
  2980     019B                     	;# 
  2981     019B                     	;# 
  2982     019B                     	;# 
  2983     019C                     	;# 
  2984     019C                     	;# 
  2985     019C                     	;# 
  2986     019D                     	;# 
  2987     019D                     	;# 
  2988     019D                     	;# 
  2989     019E                     	;# 
  2990     019E                     	;# 
  2991     019E                     	;# 
  2992     019F                     	;# 
  2993     019F                     	;# 
  2994     019F                     	;# 
  2995     019F                     	;# 
  2996     019F                     	;# 
  2997     020C                     	;# 
  2998     020D                     	;# 
  2999     020E                     	;# 
  3000     0211                     	;# 
  3001     0211                     	;# 
  3002     0212                     	;# 
  3003     0212                     	;# 
  3004     0213                     	;# 
  3005     0213                     	;# 
  3006     0214                     	;# 
  3007     0214                     	;# 
  3008     0215                     	;# 
  3009     0215                     	;# 
  3010     0215                     	;# 
  3011     0215                     	;# 
  3012     0216                     	;# 
  3013     0216                     	;# 
  3014     0217                     	;# 
  3015     0217                     	;# 
  3016     0219                     	;# 
  3017     021A                     	;# 
  3018     021B                     	;# 
  3019     021C                     	;# 
  3020     021D                     	;# 
  3021     021D                     	;# 
  3022     021E                     	;# 
  3023     021F                     	;# 
  3024     028C                     	;# 
  3025     028D                     	;# 
  3026     028E                     	;# 
  3027     0291                     	;# 
  3028     0291                     	;# 
  3029     0292                     	;# 
  3030     0293                     	;# 
  3031     0294                     	;# 
  3032     0295                     	;# 
  3033     0295                     	;# 
  3034     0296                     	;# 
  3035     0297                     	;# 
  3036     0298                     	;# 
  3037     029F                     	;# 
  3038     030C                     	;# 
  3039     030D                     	;# 
  3040     030E                     	;# 
  3041     0311                     	;# 
  3042     0311                     	;# 
  3043     0312                     	;# 
  3044     0313                     	;# 
  3045     0314                     	;# 
  3046     0315                     	;# 
  3047     0315                     	;# 
  3048     0316                     	;# 
  3049     0317                     	;# 
  3050     0318                     	;# 
  3051     038C                     	;# 
  3052     038D                     	;# 
  3053     038E                     	;# 
  3054     0391                     	;# 
  3055     0392                     	;# 
  3056     0393                     	;# 
  3057     0394                     	;# 
  3058     0395                     	;# 
  3059     0396                     	;# 
  3060     0397                     	;# 
  3061     0398                     	;# 
  3062     0399                     	;# 
  3063     039A                     	;# 
  3064     039C                     	;# 
  3065     039D                     	;# 
  3066     039E                     	;# 
  3067     039F                     	;# 
  3068     0411                     	;# 
  3069     0411                     	;# 
  3070     0412                     	;# 
  3071     0413                     	;# 
  3072     0414                     	;# 
  3073     0415                     	;# 
  3074     0416                     	;# 
  3075     0417                     	;# 
  3076     0418                     	;# 
  3077     0418                     	;# 
  3078     0419                     	;# 
  3079     041A                     	;# 
  3080     041B                     	;# 
  3081     041C                     	;# 
  3082     041D                     	;# 
  3083     041E                     	;# 
  3084     041F                     	;# 
  3085     0498                     	;# 
  3086     0498                     	;# 
  3087     0499                     	;# 
  3088     049A                     	;# 
  3089     049B                     	;# 
  3090     049B                     	;# 
  3091     049C                     	;# 
  3092     049D                     	;# 
  3093     049E                     	;# 
  3094     049F                     	;# 
  3095     0617                     	;# 
  3096     0618                     	;# 
  3097     0619                     	;# 
  3098     0619                     	;# 
  3099     061A                     	;# 
  3100     061B                     	;# 
  3101     061C                     	;# 
  3102     061C                     	;# 
  3103     061F                     	;# 
  3104     0691                     	;# 
  3105     0692                     	;# 
  3106     0693                     	;# 
  3107     0694                     	;# 
  3108     0695                     	;# 
  3109     0696                     	;# 
  3110     0697                     	;# 
  3111     0698                     	;# 
  3112     0699                     	;# 
  3113     0711                     	;# 
  3114     0712                     	;# 
  3115     0713                     	;# 
  3116     0714                     	;# 
  3117     0715                     	;# 
  3118     0716                     	;# 
  3119     0717                     	;# 
  3120     0718                     	;# 
  3121     0719                     	;# 
  3122     0891                     	;# 
  3123     0891                     	;# 
  3124     0891                     	;# 
  3125     0891                     	;# 
  3126     0891                     	;# 
  3127     0891                     	;# 
  3128     0892                     	;# 
  3129     0892                     	;# 
  3130     0892                     	;# 
  3131     0893                     	;# 
  3132     0893                     	;# 
  3133     0893                     	;# 
  3134     0893                     	;# 
  3135     0893                     	;# 
  3136     0893                     	;# 
  3137     0894                     	;# 
  3138     0894                     	;# 
  3139     0894                     	;# 
  3140     0895                     	;# 
  3141     0895                     	;# 
  3142     0895                     	;# 
  3143     0896                     	;# 
  3144     0896                     	;# 
  3145     0896                     	;# 
  3146     089B                     	;# 
  3147     0911                     	;# 
  3148     0912                     	;# 
  3149     0913                     	;# 
  3150     0914                     	;# 
  3151     0915                     	;# 
  3152     0916                     	;# 
  3153     0918                     	;# 
  3154     0919                     	;# 
  3155     091A                     	;# 
  3156     091B                     	;# 
  3157     091C                     	;# 
  3158     091D                     	;# 
  3159     091E                     	;# 
  3160     091F                     	;# 
  3161     0E0F                     	;# 
  3162     0E10                     	;# 
  3163     0E11                     	;# 
  3164     0E12                     	;# 
  3165     0E13                     	;# 
  3166     0E14                     	;# 
  3167     0E15                     	;# 
  3168     0E16                     	;# 
  3169     0E17                     	;# 
  3170     0E18                     	;# 
  3171     0E19                     	;# 
  3172     0E1A                     	;# 
  3173     0E1B                     	;# 
  3174     0E1C                     	;# 
  3175     0E1D                     	;# 
  3176     0E1E                     	;# 
  3177     0E1F                     	;# 
  3178     0E20                     	;# 
  3179     0E21                     	;# 
  3180     0E22                     	;# 
  3181     0E24                     	;# 
  3182     0E25                     	;# 
  3183     0E28                     	;# 
  3184     0E29                     	;# 
  3185     0E2A                     	;# 
  3186     0E2B                     	;# 
  3187     0E2C                     	;# 
  3188     0E2D                     	;# 
  3189     0E2E                     	;# 
  3190     0E2F                     	;# 
  3191     0E90                     	;# 
  3192     0E91                     	;# 
  3193     0E92                     	;# 
  3194     0E94                     	;# 
  3195     0E95                     	;# 
  3196     0E9C                     	;# 
  3197     0E9D                     	;# 
  3198     0E9E                     	;# 
  3199     0E9F                     	;# 
  3200     0EA0                     	;# 
  3201     0EA1                     	;# 
  3202     0EA2                     	;# 
  3203     0EA3                     	;# 
  3204     0EA4                     	;# 
  3205     0EA5                     	;# 
  3206     0EA6                     	;# 
  3207     0EA7                     	;# 
  3208     0F0F                     	;# 
  3209     0F10                     	;# 
  3210     0F11                     	;# 
  3211     0F12                     	;# 
  3212     0F13                     	;# 
  3213     0F14                     	;# 
  3214     0F15                     	;# 
  3215     0F16                     	;# 
  3216     0F17                     	;# 
  3217     0F18                     	;# 
  3218     0F19                     	;# 
  3219     0F1A                     	;# 
  3220     0F1B                     	;# 
  3221     0F1C                     	;# 
  3222     0F1D                     	;# 
  3223     0F1E                     	;# 
  3224     0F1F                     	;# 
  3225     0F20                     	;# 
  3226     0F21                     	;# 
  3227     0F22                     	;# 
  3228     0F23                     	;# 
  3229     0F24                     	;# 
  3230     0F25                     	;# 
  3231     0F26                     	;# 
  3232     0F27                     	;# 
  3233     0F28                     	;# 
  3234     0F29                     	;# 
  3235     0F2A                     	;# 
  3236     0F2B                     	;# 
  3237     0F2C                     	;# 
  3238     0F2D                     	;# 
  3239     0F2E                     	;# 
  3240     0F2F                     	;# 
  3241     0F30                     	;# 
  3242     0F31                     	;# 
  3243     0F32                     	;# 
  3244     0F33                     	;# 
  3245     0F34                     	;# 
  3246     0F35                     	;# 
  3247     0F36                     	;# 
  3248     0F37                     	;# 
  3249     0FE4                     	;# 
  3250     0FE5                     	;# 
  3251     0FE6                     	;# 
  3252     0FE7                     	;# 
  3253     0FE8                     	;# 
  3254     0FE9                     	;# 
  3255     0FEA                     	;# 
  3256     0FEB                     	;# 
  3257     0FED                     	;# 
  3258     0FEE                     	;# 
  3259     0FEF                     	;# 
  3260     0000                     	;# 
  3261     0001                     	;# 
  3262     0002                     	;# 
  3263     0003                     	;# 
  3264     0004                     	;# 
  3265     0005                     	;# 
  3266     0006                     	;# 
  3267     0007                     	;# 
  3268     0008                     	;# 
  3269     0009                     	;# 
  3270     000A                     	;# 
  3271     000B                     	;# 
  3272     000C                     	;# 
  3273     000D                     	;# 
  3274     000E                     	;# 
  3275     0010                     	;# 
  3276     0011                     	;# 
  3277     0012                     	;# 
  3278     0013                     	;# 
  3279     0014                     	;# 
  3280     0015                     	;# 
  3281     0015                     	;# 
  3282     0016                     	;# 
  3283     0016                     	;# 
  3284     0017                     	;# 
  3285     0018                     	;# 
  3286     0019                     	;# 
  3287     0019                     	;# 
  3288     001A                     	;# 
  3289     001B                     	;# 
  3290     001C                     	;# 
  3291     001D                     	;# 
  3292     001E                     	;# 
  3293     001F                     	;# 
  3294     008C                     	;# 
  3295     008D                     	;# 
  3296     008E                     	;# 
  3297     0090                     	;# 
  3298     0091                     	;# 
  3299     0092                     	;# 
  3300     0093                     	;# 
  3301     0094                     	;# 
  3302     0097                     	;# 
  3303     009B                     	;# 
  3304     009B                     	;# 
  3305     009C                     	;# 
  3306     009D                     	;# 
  3307     009E                     	;# 
  3308     009F                     	;# 
  3309     010C                     	;# 
  3310     010D                     	;# 
  3311     010E                     	;# 
  3312     0111                     	;# 
  3313     0112                     	;# 
  3314     0113                     	;# 
  3315     0114                     	;# 
  3316     0115                     	;# 
  3317     0116                     	;# 
  3318     0117                     	;# 
  3319     0118                     	;# 
  3320     0119                     	;# 
  3321     018C                     	;# 
  3322     018D                     	;# 
  3323     018E                     	;# 
  3324     0197                     	;# 
  3325     0199                     	;# 
  3326     0199                     	;# 
  3327     0199                     	;# 
  3328     019A                     	;# 
  3329     019A                     	;# 
  3330     019A                     	;# 
  3331     019B                     	;# 
  3332     019B                     	;# 
  3333     019B                     	;# 
  3334     019B                     	;# 
  3335     019B                     	;# 
  3336     019C                     	;# 
  3337     019C                     	;# 
  3338     019C                     	;# 
  3339     019D                     	;# 
  3340     019D                     	;# 
  3341     019D                     	;# 
  3342     019E                     	;# 
  3343     019E                     	;# 
  3344     019E                     	;# 
  3345     019F                     	;# 
  3346     019F                     	;# 
  3347     019F                     	;# 
  3348     019F                     	;# 
  3349     019F                     	;# 
  3350     020C                     	;# 
  3351     020D                     	;# 
  3352     020E                     	;# 
  3353     0211                     	;# 
  3354     0211                     	;# 
  3355     0212                     	;# 
  3356     0212                     	;# 
  3357     0213                     	;# 
  3358     0213                     	;# 
  3359     0214                     	;# 
  3360     0214                     	;# 
  3361     0215                     	;# 
  3362     0215                     	;# 
  3363     0215                     	;# 
  3364     0215                     	;# 
  3365     0216                     	;# 
  3366     0216                     	;# 
  3367     0217                     	;# 
  3368     0217                     	;# 
  3369     0219                     	;# 
  3370     021A                     	;# 
  3371     021B                     	;# 
  3372     021C                     	;# 
  3373     021D                     	;# 
  3374     021D                     	;# 
  3375     021E                     	;# 
  3376     021F                     	;# 
  3377     028C                     	;# 
  3378     028D                     	;# 
  3379     028E                     	;# 
  3380     0291                     	;# 
  3381     0291                     	;# 
  3382     0292                     	;# 
  3383     0293                     	;# 
  3384     0294                     	;# 
  3385     0295                     	;# 
  3386     0295                     	;# 
  3387     0296                     	;# 
  3388     0297                     	;# 
  3389     0298                     	;# 
  3390     029F                     	;# 
  3391     030C                     	;# 
  3392     030D                     	;# 
  3393     030E                     	;# 
  3394     0311                     	;# 
  3395     0311                     	;# 
  3396     0312                     	;# 
  3397     0313                     	;# 
  3398     0314                     	;# 
  3399     0315                     	;# 
  3400     0315                     	;# 
  3401     0316                     	;# 
  3402     0317                     	;# 
  3403     0318                     	;# 
  3404     038C                     	;# 
  3405     038D                     	;# 
  3406     038E                     	;# 
  3407     0391                     	;# 
  3408     0392                     	;# 
  3409     0393                     	;# 
  3410     0394                     	;# 
  3411     0395                     	;# 
  3412     0396                     	;# 
  3413     0397                     	;# 
  3414     0398                     	;# 
  3415     0399                     	;# 
  3416     039A                     	;# 
  3417     039C                     	;# 
  3418     039D                     	;# 
  3419     039E                     	;# 
  3420     039F                     	;# 
  3421     0411                     	;# 
  3422     0411                     	;# 
  3423     0412                     	;# 
  3424     0413                     	;# 
  3425     0414                     	;# 
  3426     0415                     	;# 
  3427     0416                     	;# 
  3428     0417                     	;# 
  3429     0418                     	;# 
  3430     0418                     	;# 
  3431     0419                     	;# 
  3432     041A                     	;# 
  3433     041B                     	;# 
  3434     041C                     	;# 
  3435     041D                     	;# 
  3436     041E                     	;# 
  3437     041F                     	;# 
  3438     0498                     	;# 
  3439     0498                     	;# 
  3440     0499                     	;# 
  3441     049A                     	;# 
  3442     049B                     	;# 
  3443     049B                     	;# 
  3444     049C                     	;# 
  3445     049D                     	;# 
  3446     049E                     	;# 
  3447     049F                     	;# 
  3448     0617                     	;# 
  3449     0618                     	;# 
  3450     0619                     	;# 
  3451     0619                     	;# 
  3452     061A                     	;# 
  3453     061B                     	;# 
  3454     061C                     	;# 
  3455     061C                     	;# 
  3456     061F                     	;# 
  3457     0691                     	;# 
  3458     0692                     	;# 
  3459     0693                     	;# 
  3460     0694                     	;# 
  3461     0695                     	;# 
  3462     0696                     	;# 
  3463     0697                     	;# 
  3464     0698                     	;# 
  3465     0699                     	;# 
  3466     0711                     	;# 
  3467     0712                     	;# 
  3468     0713                     	;# 
  3469     0714                     	;# 
  3470     0715                     	;# 
  3471     0716                     	;# 
  3472     0717                     	;# 
  3473     0718                     	;# 
  3474     0719                     	;# 
  3475     0891                     	;# 
  3476     0891                     	;# 
  3477     0891                     	;# 
  3478     0891                     	;# 
  3479     0891                     	;# 
  3480     0891                     	;# 
  3481     0892                     	;# 
  3482     0892                     	;# 
  3483     0892                     	;# 
  3484     0893                     	;# 
  3485     0893                     	;# 
  3486     0893                     	;# 
  3487     0893                     	;# 
  3488     0893                     	;# 
  3489     0893                     	;# 
  3490     0894                     	;# 
  3491     0894                     	;# 
  3492     0894                     	;# 
  3493     0895                     	;# 
  3494     0895                     	;# 
  3495     0895                     	;# 
  3496     0896                     	;# 
  3497     0896                     	;# 
  3498     0896                     	;# 
  3499     089B                     	;# 
  3500     0911                     	;# 
  3501     0912                     	;# 
  3502     0913                     	;# 
  3503     0914                     	;# 
  3504     0915                     	;# 
  3505     0916                     	;# 
  3506     0918                     	;# 
  3507     0919                     	;# 
  3508     091A                     	;# 
  3509     091B                     	;# 
  3510     091C                     	;# 
  3511     091D                     	;# 
  3512     091E                     	;# 
  3513     091F                     	;# 
  3514     0E0F                     	;# 
  3515     0E10                     	;# 
  3516     0E11                     	;# 
  3517     0E12                     	;# 
  3518     0E13                     	;# 
  3519     0E14                     	;# 
  3520     0E15                     	;# 
  3521     0E16                     	;# 
  3522     0E17                     	;# 
  3523     0E18                     	;# 
  3524     0E19                     	;# 
  3525     0E1A                     	;# 
  3526     0E1B                     	;# 
  3527     0E1C                     	;# 
  3528     0E1D                     	;# 
  3529     0E1E                     	;# 
  3530     0E1F                     	;# 
  3531     0E20                     	;# 
  3532     0E21                     	;# 
  3533     0E22                     	;# 
  3534     0E24                     	;# 
  3535     0E25                     	;# 
  3536     0E28                     	;# 
  3537     0E29                     	;# 
  3538     0E2A                     	;# 
  3539     0E2B                     	;# 
  3540     0E2C                     	;# 
  3541     0E2D                     	;# 
  3542     0E2E                     	;# 
  3543     0E2F                     	;# 
  3544     0E90                     	;# 
  3545     0E91                     	;# 
  3546     0E92                     	;# 
  3547     0E94                     	;# 
  3548     0E95                     	;# 
  3549     0E9C                     	;# 
  3550     0E9D                     	;# 
  3551     0E9E                     	;# 
  3552     0E9F                     	;# 
  3553     0EA0                     	;# 
  3554     0EA1                     	;# 
  3555     0EA2                     	;# 
  3556     0EA3                     	;# 
  3557     0EA4                     	;# 
  3558     0EA5                     	;# 
  3559     0EA6                     	;# 
  3560     0EA7                     	;# 
  3561     0F0F                     	;# 
  3562     0F10                     	;# 
  3563     0F11                     	;# 
  3564     0F12                     	;# 
  3565     0F13                     	;# 
  3566     0F14                     	;# 
  3567     0F15                     	;# 
  3568     0F16                     	;# 
  3569     0F17                     	;# 
  3570     0F18                     	;# 
  3571     0F19                     	;# 
  3572     0F1A                     	;# 
  3573     0F1B                     	;# 
  3574     0F1C                     	;# 
  3575     0F1D                     	;# 
  3576     0F1E                     	;# 
  3577     0F1F                     	;# 
  3578     0F20                     	;# 
  3579     0F21                     	;# 
  3580     0F22                     	;# 
  3581     0F23                     	;# 
  3582     0F24                     	;# 
  3583     0F25                     	;# 
  3584     0F26                     	;# 
  3585     0F27                     	;# 
  3586     0F28                     	;# 
  3587     0F29                     	;# 
  3588     0F2A                     	;# 
  3589     0F2B                     	;# 
  3590     0F2C                     	;# 
  3591     0F2D                     	;# 
  3592     0F2E                     	;# 
  3593     0F2F                     	;# 
  3594     0F30                     	;# 
  3595     0F31                     	;# 
  3596     0F32                     	;# 
  3597     0F33                     	;# 
  3598     0F34                     	;# 
  3599     0F35                     	;# 
  3600     0F36                     	;# 
  3601     0F37                     	;# 
  3602     0FE4                     	;# 
  3603     0FE5                     	;# 
  3604     0FE6                     	;# 
  3605     0FE7                     	;# 
  3606     0FE8                     	;# 
  3607     0FE9                     	;# 
  3608     0FEA                     	;# 
  3609     0FEB                     	;# 
  3610     0FED                     	;# 
  3611     0FEE                     	;# 
  3612     0FEF                     	;# 
  3613                           
  3614 ;; Function _I2C1_Deinitialize is unused but had its address taken
  3615     0000                     
  3616 ;; Function _I2C1_Read is unused but had its address taken
  3617     0000                     
  3618 ;; Function _I2C1_WriteRead is unused but had its address taken
  3619     0000                     
  3620 ;; Function _I2C1_ErrorGet is unused but had its address taken
  3621     0000                     
  3622 ;; Function _I2C1_DefaultCallback is unused but had its address taken
  3623     0000                     
  3624 ;; Function _I2C1_EVENT_IDLE is unused but had its address taken
  3625     0000                     
  3626 ;; Function _I2C1_EVENT_SEND_RD_ADDR is unused but had its address taken
  3627     0000                     
  3628 ;; Function _I2C1_EVENT_SEND_WR_ADDR is unused but had its address taken
  3629     0000                     
  3630 ;; Function _I2C1_EVENT_TX is unused but had its address taken
  3631     0000                     
  3632 ;; Function _I2C1_EVENT_RX is unused but had its address taken
  3633     0000                     
  3634 ;; Function _I2C1_EVENT_NACK is unused but had its address taken
  3635     0000                     
  3636 ;; Function _I2C1_EVENT_ERROR is unused but had its address taken
  3637     0000                     
  3638 ;; Function _I2C1_EVENT_STOP is unused but had its address taken
  3639     0000                     
  3640 ;; Function _I2C1_EVENT_RESET is unused but had its address taken
  3641     0000                     
  3642 ;; Function _TMR2_DefaultOverflowCallback is unused but had its address taken
  3643     0000                     
  3644 ;; Function _TMR4_DefaultOverflowCallback is unused but had its address taken
  3645     0000                     
  3646                           	psect	idataBANK1
  3647     0347                     __pidataBANK1:
  3648                           
  3649                           ;initializer for main@F7132
  3650     0347  347E               	retlw	126
  3651     0348  3400               	retlw	0
  3652     0349  3476               	retlw	118
  3653     034A  3400               	retlw	0
  3654     034B  3470               	retlw	112
  3655     034C  3400               	retlw	0
  3656     034D  3469               	retlw	105
  3657     034E  3400               	retlw	0
  3658     034F  3463               	retlw	99
  3659     0350  3400               	retlw	0
  3660     0351  345E               	retlw	94
  3661     0352  3400               	retlw	0
  3662     0353  3458               	retlw	88
  3663     0354  3400               	retlw	0
  3664     0355  3453               	retlw	83
  3665     0356  3400               	retlw	0
  3666     0357  344F               	retlw	79
  3667     0358  3400               	retlw	0
  3668     0359  344A               	retlw	74
  3669     035A  3400               	retlw	0
  3670     035B  3446               	retlw	70
  3671     035C  3400               	retlw	0
  3672     035D  3442               	retlw	66
  3673     035E  3400               	retlw	0
  3674                           
  3675                           ;initializer for main@F7130
  3676     035F  34FC               	retlw	252
  3677     0360  3400               	retlw	0
  3678     0361  34EE               	retlw	238
  3679     0362  3400               	retlw	0
  3680     0363  34E0               	retlw	224
  3681     0364  3400               	retlw	0
  3682     0365  34D4               	retlw	212
  3683     0366  3400               	retlw	0
  3684     0367  34C8               	retlw	200
  3685     0368  3400               	retlw	0
  3686     0369  34BD               	retlw	189
  3687     036A  3400               	retlw	0
  3688     036B  34B2               	retlw	178
  3689     036C  3400               	retlw	0
  3690     036D  34A8               	retlw	168
  3691     036E  3400               	retlw	0
  3692     036F  349E               	retlw	158
  3693     0370  3400               	retlw	0
  3694     0371  3495               	retlw	149
  3695     0372  3400               	retlw	0
  3696     0373  348D               	retlw	141
  3697     0374  3400               	retlw	0
  3698     0375  3485               	retlw	133
  3699     0376  3400               	retlw	0
  3700                           
  3701                           	psect	idataBANK2
  3702     039A                     __pidataBANK2:
  3703                           
  3704                           ;initializer for main@F7134
  3705     039A  343E               	retlw	62
  3706     039B  3400               	retlw	0
  3707     039C  343A               	retlw	58
  3708     039D  3400               	retlw	0
  3709     039E  3438               	retlw	56
  3710     039F  3400               	retlw	0
  3711     03A0  3434               	retlw	52
  3712     03A1  3400               	retlw	0
  3713     03A2  3431               	retlw	49
  3714     03A3  3400               	retlw	0
  3715     03A4  342E               	retlw	46
  3716     03A5  3400               	retlw	0
  3717     03A6  342C               	retlw	44
  3718     03A7  3400               	retlw	0
  3719     03A8  3429               	retlw	41
  3720     03A9  3400               	retlw	0
  3721     03AA  3427               	retlw	39
  3722     03AB  3400               	retlw	0
  3723     03AC  3425               	retlw	37
  3724     03AD  3400               	retlw	0
  3725     03AE  3423               	retlw	35
  3726     03AF  3400               	retlw	0
  3727     03B0  3421               	retlw	33
  3728     03B1  3400               	retlw	0
  3729                           
  3730                           	psect	idataEEDATA
  3731     0000                     __pidataEEDATA:
  3732     0000                     _alarm:	
  3733                           ;initializer for _alarm
  3734                           
  3735     0000  00FF               	db	255
  3736                           
  3737                           	psect	stringtext1
  3738     03F2                     __pstringtext1:
  3739     03F2                     _i2c1_eventTable:
  3740     03F2  3400               	retlw	0
  3741     03F3  3400               	retlw	0
  3742     03F4  3400               	retlw	0
  3743     03F5  3400               	retlw	0
  3744     03F6  3400               	retlw	0
  3745     03F7  3400               	retlw	0
  3746     03F8  3400               	retlw	0
  3747     03F9  3400               	retlw	0
  3748     03FA  3400               	retlw	0
  3749     03FB  3400               	retlw	0
  3750     03FC  3400               	retlw	0
  3751     03FD  3400               	retlw	0
  3752     03FE  3400               	retlw	0
  3753     03FF  3400               	retlw	0
  3754     0400  3400               	retlw	0
  3755     0401  3400               	retlw	0
  3756     0402  3400               	retlw	0
  3757     0403  3400               	retlw	0
  3758     0404                     __end_of_i2c1_eventTable:
  3759                           
  3760                           	psect	stringtext2
  3761     049A                     __pstringtext2:
  3762     049A                     main@test:
  3763     049A  3403               	retlw	3
  3764     049B  3400               	retlw	0
  3765     049C                     __end_ofmain@test:
  3766                           
  3767                           	psect	stringtext3
  3768     03DE                     __pstringtext3:
  3769     03DE                     _I2C1_Host:
  3770     03DE  34C8               	retlw	low _I2C1_Initialize
  3771     03DF  3403               	retlw	high _I2C1_Initialize
  3772     03E0  3400               	retlw	0
  3773     03E1  3400               	retlw	0
  3774     03E2  3477               	retlw	low _I2C1_Write
  3775     03E3  3403               	retlw	high _I2C1_Write
  3776     03E4  3400               	retlw	0
  3777     03E5  3400               	retlw	0
  3778     03E6  3400               	retlw	0
  3779     03E7  3400               	retlw	0
  3780     03E8  3400               	retlw	0
  3781     03E9  3400               	retlw	0
  3782     03EA  3400               	retlw	0
  3783     03EB  3400               	retlw	0
  3784     03EC  3415               	retlw	low _I2C1_IsBusy
  3785     03ED  3404               	retlw	high _I2C1_IsBusy
  3786     03EE  344C               	retlw	low _I2C1_CallbackRegister
  3787     03EF  3404               	retlw	high _I2C1_CallbackRegister
  3788     03F0  3400               	retlw	0
  3789     03F1  3400               	retlw	0
  3790     03F2                     __end_of_I2C1_Host:
  3791                           
  3792                           	psect	stringtext4
  3793     049C                     __pstringtext4:
  3794     049C                     main@tempo:
  3795     049C  3462               	retlw	98
  3796     049D  3402               	retlw	2
  3797     049E                     __end_ofmain@tempo:
  3798     000E                     _PORTCbits	set	14
  3799     000C                     _PORTAbits	set	12
  3800     0010                     _PIR0bits	set	16
  3801     0012                     _PIR2bits	set	18
  3802     001F                     _T2CONbits	set	31
  3803     001F                     _T2CON	set	31
  3804     001D                     _TMR2	set	29
  3805     001E                     _PR2	set	30
  3806     0011                     _PIR1bits	set	17
  3807     0090                     _PIE0bits	set	144
  3808     008E                     _TRISCbits	set	142
  3809     008D                     _TRISBbits	set	141
  3810     008C                     _TRISAbits	set	140
  3811     008E                     _TRISC	set	142
  3812     008D                     _TRISB	set	141
  3813     008C                     _TRISA	set	140
  3814     0091                     _PIE1bits	set	145
  3815     010E                     _LATCbits	set	270
  3816     010C                     _LATAbits	set	268
  3817     010E                     _LATC	set	270
  3818     010D                     _LATB	set	269
  3819     010C                     _LATA	set	268
  3820     018E                     _ANSELCbits	set	398
  3821     018D                     _ANSELBbits	set	397
  3822     018C                     _ANSELAbits	set	396
  3823     018E                     _ANSELC	set	398
  3824     018D                     _ANSELB	set	397
  3825     018C                     _ANSELA	set	396
  3826     020E                     _WPUC	set	526
  3827     020D                     _WPUB	set	525
  3828     020C                     _WPUA	set	524
  3829     0216                     _SSP1CON2bits	set	534
  3830     0211                     _SSP1BUF	set	529
  3831     0214                     _SSP1STATbits	set	532
  3832     0215                     _SSP1CON1bits	set	533
  3833     0212                     _SSP1ADD	set	530
  3834     0217                     _SSP1CON3	set	535
  3835     0216                     _SSP1CON2	set	534
  3836     0215                     _SSP1CON1	set	533
  3837     0214                     _SSP1STAT	set	532
  3838     028E                     _ODCONC	set	654
  3839     028D                     _ODCONB	set	653
  3840     028C                     _ODCONA	set	652
  3841     030E                     _SLRCONC	set	782
  3842     030D                     _SLRCONB	set	781
  3843     030C                     _SLRCONA	set	780
  3844     0394                     _IOCBPbits	set	916
  3845     0391                     _IOCAPbits	set	913
  3846     0399                     _IOCCF	set	921
  3847     0398                     _IOCCN	set	920
  3848     0397                     _IOCCP	set	919
  3849     0396                     _IOCBF	set	918
  3850     0395                     _IOCBN	set	917
  3851     0394                     _IOCBP	set	916
  3852     0393                     _IOCAF	set	915
  3853     0392                     _IOCAN	set	914
  3854     0391                     _IOCAP	set	913
  3855     038E                     _INLVLC	set	910
  3856     038D                     _INLVLB	set	909
  3857     038C                     _INLVLA	set	908
  3858     0417                     _T4CONbits	set	1047
  3859     0417                     _T4CON	set	1047
  3860     0415                     _TMR4	set	1045
  3861     0416                     _PR4	set	1046
  3862     0617                     _PWM5DCL	set	1559
  3863     0618                     _PWM5DCH	set	1560
  3864     0619                     _PWM5CON	set	1561
  3865     061F                     _PWMTMRSbits	set	1567
  3866     061A                     _PWM6DCL	set	1562
  3867     061B                     _PWM6DCH	set	1563
  3868     061C                     _PWM6CON	set	1564
  3869     091E                     _OSCTUNE	set	2334
  3870     091C                     _OSCSTAT1	set	2332
  3871     091F                     _OSCFRQ	set	2335
  3872     091D                     _OSCEN	set	2333
  3873     091B                     _OSCCON3	set	2331
  3874     0919                     _OSCCON1	set	2329
  3875     0E21                     _SSP1DATPPS	set	3617
  3876     0E20                     _SSP1CLKPPS	set	3616
  3877     0E9C                     _RB4PPS	set	3740
  3878     0E9E                     _RB6PPS	set	3742
  3879     0EA3                     _RC3PPS	set	3747
  3880     0EA5                     _RC5PPS	set	3749
  3881                           
  3882                           	psect	cinit
  3883     00C8                     start_initialization:	
  3884                           ; #config settings
  3885                           
  3886     00C8                     __initialization:
  3887                           
  3888                           ; Initialize objects allocated to BANK1
  3889     00C8  3047               	movlw	low __pidataBANK1
  3890     00C9  0084               	movwf	4
  3891     00CA  3083               	movlw	(high __pidataBANK1)| (0+128)
  3892     00CB  0085               	movwf	5
  3893     00CC  30A0               	movlw	low __pdataBANK1
  3894     00CD  0086               	movwf	6
  3895     00CE  3000               	movlw	high __pdataBANK1
  3896     00CF  0087               	movwf	7
  3897     00D0  3030               	movlw	48
  3898     00D1  3184  2468  3180   	fcall	init_ram
  3899                           
  3900                           ; Initialize objects allocated to BANK2
  3901     00D4  309A               	movlw	low __pidataBANK2
  3902     00D5  0084               	movwf	4
  3903     00D6  3083               	movlw	(high __pidataBANK2)| (0+128)
  3904     00D7  0085               	movwf	5
  3905     00D8  3020               	movlw	low __pdataBANK2
  3906     00D9  0086               	movwf	6
  3907     00DA  3001               	movlw	high __pdataBANK2
  3908     00DB  0087               	movwf	7
  3909     00DC  3018               	movlw	24
  3910     00DD  3184  2468  3180   	fcall	init_ram
  3911                           
  3912                           ; Clear objects allocated to COMMON
  3913     00E0  01F9               	clrf	__pbssCOMMON& (0+127)
  3914     00E1  01FA               	clrf	(__pbssCOMMON+1)& (0+127)
  3915     00E2  01FB               	clrf	(__pbssCOMMON+2)& (0+127)
  3916     00E3  01FC               	clrf	(__pbssCOMMON+3)& (0+127)
  3917                           
  3918                           ; Clear objects allocated to BANK0
  3919     00E4  01EA               	clrf	__pbssBANK0& (0+127)
  3920     00E5  01EB               	clrf	(__pbssBANK0+1)& (0+127)
  3921                           
  3922                           ; Clear objects allocated to BANK1
  3923     00E6  30D0               	movlw	low __pbssBANK1
  3924     00E7  0084               	movwf	4
  3925     00E8  3000               	movlw	high __pbssBANK1
  3926     00E9  0085               	movwf	5
  3927     00EA  300D               	movlw	13
  3928     00EB  3184  246E  3180   	fcall	clear_ram0
  3929     00EE                     end_of_initialization:	
  3930                           ;End of C runtime variable initialization code
  3931                           
  3932     00EE                     __end_of__initialization:
  3933     00EE  107E               	bcf	int$flags,0	;clear compiler interrupt flag (level 1)
  3934     00EF  0020               	movlb	0
  3935     00F0  3180  28F2         	ljmp	_main	;jump to C main() function
  3936                           
  3937                           	psect	dataEEDATA
  3938     0000                     __pdataEEDATA:
  3939                           
  3940                           	psect	bssCOMMON
  3941     0079                     __pbssCOMMON:
  3942     0079                     _TMR2_OverflowCallback:
  3943     0079                     	ds	2
  3944     007B                     _I2C1_Callback:
  3945     007B                     	ds	2
  3946                           
  3947                           	psect	bssBANK0
  3948     006A                     __pbssBANK0:
  3949     006A                     _TMR4_OverflowCallback:
  3950     006A                     	ds	2
  3951                           
  3952                           	psect	bssBANK1
  3953     00D0                     __pbssBANK1:
  3954     00D0                     _i2c1Status:
  3955     00D0                     	ds	13
  3956                           
  3957                           	psect	dataBANK1
  3958     00A0                     __pdataBANK1:
  3959     00A0                     main@F7132:
  3960     00A0                     	ds	24
  3961     00B8                     main@F7130:
  3962     00B8                     	ds	24
  3963                           
  3964                           	psect	dataBANK2
  3965     0120                     __pdataBANK2:
  3966     0120                     main@F7134:
  3967     0120                     	ds	24
  3968                           
  3969                           	psect	inittext
  3970     0468                     init_ram:
  3971     0468  00FE               	movwf	btemp
  3972     0469                     initloop:
  3973     0469  0012               	moviw fsr0++
  3974     046A  001E               	movwi fsr1++
  3975     046B  0BFE               	decfsz	btemp,f
  3976     046C  2C69               	goto	initloop
  3977     046D  3400               	retlw	0
  3978                           
  3979                           	psect	clrtext
  3980     046E                     clear_ram0:	
  3981                           ;	Called with FSR0 containing the base address, and
  3982                           ;	WREG with the size to clear
  3983                           
  3984     046E  0064               	clrwdt	;clear the watchdog before getting into this loop
  3985     046F                     clrloop0:
  3986     046F  0180               	clrf	0	;clear RAM location pointed to by FSR
  3987     0470  3101               	addfsr 0,1
  3988     0471  0B89               	decfsz	9,f	;Have we reached the end of clearing yet?
  3989     0472  2C6F               	goto	clrloop0	;have we reached the end yet?
  3990     0473  3400               	retlw	0	;all done for this memory range, return
  3991                           
  3992                           	psect	cstackCOMMON
  3993     0070                     __pcstackCOMMON:
  3994     0070                     ?_I2C1_Initialize:
  3995     0070                     ?_I2C1_IsBusy:	
  3996                           ; 1 bytes @ 0x0
  3997                           
  3998     0070                     ??_I2C1_IsBusy:	
  3999                           ; 1 bytes @ 0x0
  4000                           
  4001     0070                     ?_I2C1_CallbackRegister:	
  4002                           ; 1 bytes @ 0x0
  4003                           
  4004     0070                     ?_I2C1_InterruptsEnable:	
  4005                           ; 1 bytes @ 0x0
  4006                           
  4007     0070                     ??_I2C1_InterruptsEnable:	
  4008                           ; 1 bytes @ 0x0
  4009                           
  4010     0070                     ?_I2C1_WriteStart:	
  4011                           ; 1 bytes @ 0x0
  4012                           
  4013     0070                     ??_I2C1_WriteStart:	
  4014                           ; 1 bytes @ 0x0
  4015                           
  4016     0070                     ?_I2C1_StartSend:	
  4017                           ; 1 bytes @ 0x0
  4018                           
  4019     0070                     ??_I2C1_StartSend:	
  4020                           ; 1 bytes @ 0x0
  4021                           
  4022     0070                     ?_TMR2_Initialize:	
  4023                           ; 1 bytes @ 0x0
  4024                           
  4025     0070                     ?_TMR4_Initialize:	
  4026                           ; 1 bytes @ 0x0
  4027                           
  4028     0070                     ?_TMR2_OverflowCallbackRegister:	
  4029                           ; 1 bytes @ 0x0
  4030                           
  4031     0070                     ?_TMR4_OverflowCallbackRegister:	
  4032                           ; 1 bytes @ 0x0
  4033                           
  4034     0070                     ?_PWM6_Initialize:	
  4035                           ; 1 bytes @ 0x0
  4036                           
  4037     0070                     ??_PWM6_Initialize:	
  4038                           ; 1 bytes @ 0x0
  4039                           
  4040     0070                     ?_PWM5_Initialize:	
  4041                           ; 1 bytes @ 0x0
  4042                           
  4043     0070                     ??_PWM5_Initialize:	
  4044                           ; 1 bytes @ 0x0
  4045                           
  4046     0070                     ?_PIN_MANAGER_Initialize:	
  4047                           ; 1 bytes @ 0x0
  4048                           
  4049     0070                     ??_PIN_MANAGER_Initialize:	
  4050                           ; 1 bytes @ 0x0
  4051                           
  4052     0070                     ?_CLOCK_Initialize:	
  4053                           ; 1 bytes @ 0x0
  4054                           
  4055     0070                     ??_CLOCK_Initialize:	
  4056                           ; 1 bytes @ 0x0
  4057                           
  4058     0070                     ?_SYSTEM_Initialize:	
  4059                           ; 1 bytes @ 0x0
  4060                           
  4061     0070                     ?_TMR2_Start:	
  4062                           ; 1 bytes @ 0x0
  4063                           
  4064     0070                     ??_TMR2_Start:	
  4065                           ; 1 bytes @ 0x0
  4066                           
  4067     0070                     ?_TMR2_Stop:	
  4068                           ; 1 bytes @ 0x0
  4069                           
  4070     0070                     ??_TMR2_Stop:	
  4071                           ; 1 bytes @ 0x0
  4072                           
  4073     0070                     ?_TMR2_PeriodCountSet:	
  4074                           ; 1 bytes @ 0x0
  4075                           
  4076     0070                     ?_TMR4_Start:	
  4077                           ; 1 bytes @ 0x0
  4078                           
  4079     0070                     ??_TMR4_Start:	
  4080                           ; 1 bytes @ 0x0
  4081                           
  4082     0070                     ?_TMR4_Stop:	
  4083                           ; 1 bytes @ 0x0
  4084                           
  4085     0070                     ??_TMR4_Stop:	
  4086                           ; 1 bytes @ 0x0
  4087                           
  4088     0070                     ?_TMR4_PeriodCountSet:	
  4089                           ; 1 bytes @ 0x0
  4090                           
  4091     0070                     ?_main:	
  4092                           ; 1 bytes @ 0x0
  4093                           
  4094     0070                     ?_ISR:	
  4095                           ; 1 bytes @ 0x0
  4096                           
  4097     0070                     ??_ISR:	
  4098                           ; 1 bytes @ 0x0
  4099                           
  4100     0070                     _I2C1_IsBusy$483:	
  4101                           ; 1 bytes @ 0x0
  4102                           
  4103     0070                     I2C1_CallbackRegister@callbackHandler:	
  4104                           ; 1 bytes @ 0x0
  4105                           
  4106     0070                     TMR2_PeriodCountSet@periodVal:	
  4107                           ; 2 bytes @ 0x0
  4108                           
  4109     0070                     TMR2_OverflowCallbackRegister@InterruptHandler:	
  4110                           ; 2 bytes @ 0x0
  4111                           
  4112     0070                     TMR4_PeriodCountSet@periodVal:	
  4113                           ; 2 bytes @ 0x0
  4114                           
  4115     0070                     TMR4_OverflowCallbackRegister@InterruptHandler:	
  4116                           ; 2 bytes @ 0x0
  4117                           
  4118                           
  4119                           ; 2 bytes @ 0x0
  4120     0070                     	ds	1
  4121     0071                     ?_I2C1_Write:
  4122     0071                     I2C1_Write@address:	
  4123                           ; 1 bytes @ 0x1
  4124                           
  4125                           
  4126                           ; 2 bytes @ 0x1
  4127     0071                     	ds	1
  4128     0072                     ??_I2C1_Initialize:
  4129     0072                     ??_I2C1_CallbackRegister:	
  4130                           ; 1 bytes @ 0x2
  4131                           
  4132     0072                     ??_TMR2_Initialize:	
  4133                           ; 1 bytes @ 0x2
  4134                           
  4135     0072                     ??_TMR4_Initialize:	
  4136                           ; 1 bytes @ 0x2
  4137                           
  4138     0072                     ??_TMR2_OverflowCallbackRegister:	
  4139                           ; 1 bytes @ 0x2
  4140                           
  4141     0072                     ??_TMR4_OverflowCallbackRegister:	
  4142                           ; 1 bytes @ 0x2
  4143                           
  4144     0072                     ??_SYSTEM_Initialize:	
  4145                           ; 1 bytes @ 0x2
  4146                           
  4147     0072                     ??_TMR2_PeriodCountSet:	
  4148                           ; 1 bytes @ 0x2
  4149                           
  4150     0072                     ??_TMR4_PeriodCountSet:	
  4151                           ; 1 bytes @ 0x2
  4152                           
  4153                           
  4154                           ; 1 bytes @ 0x2
  4155     0072                     	ds	1
  4156     0073                     I2C1_Write@data:
  4157                           
  4158                           ; 1 bytes @ 0x3
  4159     0073                     	ds	1
  4160     0074                     I2C1_Write@dataLength:
  4161                           
  4162                           ; 2 bytes @ 0x4
  4163     0074                     	ds	2
  4164     0076                     ??_I2C1_Write:
  4165     0076                     I2C1_Write@retStatus:	
  4166                           ; 1 bytes @ 0x6
  4167                           
  4168                           
  4169                           ; 1 bytes @ 0x6
  4170     0076                     	ds	1
  4171     0077                     ??_main:
  4172                           
  4173                           ; 1 bytes @ 0x7
  4174     0077                     	ds	2
  4175                           
  4176                           	psect	cstackBANK0
  4177     0020                     __pcstackBANK0:
  4178     0020                     main@o3:
  4179                           
  4180                           ; 24 bytes @ 0x0
  4181     0020                     	ds	24
  4182     0038                     main@o2:
  4183                           
  4184                           ; 24 bytes @ 0x18
  4185     0038                     	ds	24
  4186     0050                     main@dataWrite:
  4187                           
  4188                           ; 2 bytes @ 0x30
  4189     0050                     	ds	2
  4190     0052                     main@o1:
  4191                           
  4192                           ; 24 bytes @ 0x32
  4193     0052                     	ds	24
  4194                           
  4195                           	psect	maintext
  4196     00F2                     __pmaintext:	
  4197 ;;
  4198 ;;Main: autosize = 0, tempsize = 2, incstack = 0, save=0
  4199 ;;
  4200 ;; *************** function _main *****************
  4201 ;; Defined at:
  4202 ;;		line 39 in file "main.c"
  4203 ;; Parameters:    Size  Location     Type
  4204 ;;		None
  4205 ;; Auto vars:     Size  Location     Type
  4206 ;;  o1             24   50[BANK0 ] unsigned int [12]
  4207 ;;  o2             24   24[BANK0 ] unsigned int [12]
  4208 ;;  o3             24    0[BANK0 ] unsigned int [12]
  4209 ;;  I2C             2    0        PTR const struct .
  4210 ;;		 -> I2C1_Host(20), 
  4211 ;;  dataWrite       2   48[BANK0 ] unsigned char [2]
  4212 ;;  dataRead        2    0        unsigned char [2]
  4213 ;; Return value:  Size  Location     Type
  4214 ;;                  1    wreg      void 
  4215 ;; Registers used:
  4216 ;;		wreg, fsr0l, fsr0h, fsr1l, fsr1h, status,2, status,0, pclath, cstack
  4217 ;; Tracked objects:
  4218 ;;		On entry : B1F/0
  4219 ;;		On exit  : 0/0
  4220 ;;		Unchanged: 0/0
  4221 ;; Data sizes:     COMMON   BANK0   BANK1   BANK2   BANK3   BANK4   BANK5   BANK6   BANK7   BANK8   BANK9  BANK10  BANK1
      +1  BANK12  BANK13  BANK14  BANK15  BANK16  BANK17  BANK18  BANK19  BANK20  BANK21  BANK22  BANK23  BANK24  BANK25
  4222 ;;      Params:         0       0       0       0       0       0       0       0       0       0       0       0       
      +0       0       0       0       0       0       0       0       0       0       0       0       0       0       0
  4223 ;;      Locals:         0      74       0       0       0       0       0       0       0       0       0       0       
      +0       0       0       0       0       0       0       0       0       0       0       0       0       0       0
  4224 ;;      Temps:          2       0       0       0       0       0       0       0       0       0       0       0       
      +0       0       0       0       0       0       0       0       0       0       0       0       0       0       0
  4225 ;;      Totals:         2      74       0       0       0       0       0       0       0       0       0       0       
      +0       0       0       0       0       0       0       0       0       0       0       0       0       0       0
  4226 ;;Total ram usage:       76 bytes
  4227 ;; Hardware stack levels required when called: 4
  4228 ;; This function calls:
  4229 ;;		_I2C1_IsBusy
  4230 ;;		_I2C1_Write
  4231 ;;		_SYSTEM_Initialize
  4232 ;;		_TMR2_PeriodCountSet
  4233 ;;		_TMR2_Start
  4234 ;;		_TMR2_Stop
  4235 ;;		_TMR4_PeriodCountSet
  4236 ;;		_TMR4_Start
  4237 ;;		_TMR4_Stop
  4238 ;; This function is called by:
  4239 ;;		Startup code after reset
  4240 ;; This function uses a non-reentrant model
  4241 ;;
  4242                           
  4243     00F2                     _main:	
  4244                           ;psect for function _main
  4245                           
  4246     00F2                     l2285:	
  4247                           ;incstack = 0
  4248                           ; Regs used in _main: [wreg-fsr1h+status,2+status,0+pclath+cstack]
  4249                           
  4250                           
  4251                           ;main.c: 41:     SYSTEM_Initialize();
  4252     00F2  3183  23B2  3180   	fcall	_SYSTEM_Initialize
  4253     00F5                     l2287:
  4254                           
  4255                           ;main.c: 47:     size_t o1[] = {252,238,224,212,200,189,178,168,158,149,141,133};
  4256     00F5  30B8               	movlw	low main@F7130
  4257     00F6  0086               	movwf	6
  4258     00F7  3000               	movlw	high main@F7130
  4259     00F8  0087               	movwf	7
  4260     00F9  3052               	movlw	low main@o1
  4261     00FA  0084               	movwf	4
  4262     00FB  3000               	movlw	high main@o1
  4263     00FC  0085               	movwf	5
  4264     00FD  3018               	movlw	24
  4265     00FE  00F7               	movwf	??_main
  4266     00FF                     u720:
  4267     00FF  0016               	moviw fsr1++
  4268     0100  001A               	movwi fsr0++
  4269     0101  0BF7               	decfsz	??_main,f
  4270     0102  28FF               	goto	u720
  4271     0103                     l2289:
  4272                           
  4273                           ;main.c: 48:     size_t o2[] = {126,118,112,105,99,94,88,83,79,74,70,66};
  4274     0103  30A0               	movlw	low main@F7132
  4275     0104  0086               	movwf	6
  4276     0105  3000               	movlw	high main@F7132
  4277     0106  0087               	movwf	7
  4278     0107  3038               	movlw	low main@o2
  4279     0108  0084               	movwf	4
  4280     0109  3000               	movlw	high main@o2
  4281     010A  0085               	movwf	5
  4282     010B  3018               	movlw	24
  4283     010C  00F7               	movwf	??_main
  4284     010D                     u730:
  4285     010D  0016               	moviw fsr1++
  4286     010E  001A               	movwi fsr0++
  4287     010F  0BF7               	decfsz	??_main,f
  4288     0110  290D               	goto	u730
  4289     0111                     l2291:
  4290                           
  4291                           ;main.c: 49:     size_t o3[] = {62,58,56,52,49,46,44,41,39,37,35,33};
  4292     0111  3020               	movlw	low main@F7134
  4293     0112  0086               	movwf	6
  4294     0113  3001               	movlw	high main@F7134
  4295     0114  0087               	movwf	7
  4296     0115  3020               	movlw	low main@o3
  4297     0116  0084               	movwf	4
  4298     0117  3000               	movlw	high main@o3
  4299     0118  0085               	movwf	5
  4300     0119  3018               	movlw	24
  4301     011A  00F7               	movwf	??_main
  4302     011B                     u740:
  4303     011B  0016               	moviw fsr1++
  4304     011C  001A               	movwi fsr0++
  4305     011D  0BF7               	decfsz	??_main,f
  4306     011E  291B               	goto	u740
  4307     011F                     l2293:
  4308                           
  4309                           ;main.c: 54:         TMR2_Stop();
  4310     011F  3184  2491  3180   	fcall	_TMR2_Stop
  4311     0122                     l2295:
  4312                           
  4313                           ;main.c: 55:         TMR2_PeriodCountSet(o2[1]);
  4314     0122  0020               	movlb	0	; select bank0
  4315     0123  083B               	movf	main@o2+3,w
  4316     0124  00F1               	movwf	TMR2_PeriodCountSet@periodVal+1
  4317     0125  083A               	movf	main@o2+2,w
  4318     0126  00F0               	movwf	TMR2_PeriodCountSet@periodVal
  4319     0127  3184  2483  3180   	fcall	_TMR2_PeriodCountSet
  4320     012A                     l2297:
  4321                           
  4322                           ;main.c: 56:         TMR2_Start();
  4323     012A  3184  2494  3180   	fcall	_TMR2_Start
  4324     012D                     l2299:
  4325                           
  4326                           ;main.c: 58:         TMR4_Stop();
  4327     012D  3184  248B  3180   	fcall	_TMR4_Stop
  4328     0130                     l2301:
  4329                           
  4330                           ;main.c: 59:         TMR4_PeriodCountSet(o1[1]);
  4331     0130  0020               	movlb	0	; select bank0
  4332     0131  0855               	movf	main@o1+3,w
  4333     0132  00F1               	movwf	TMR4_PeriodCountSet@periodVal+1
  4334     0133  0854               	movf	main@o1+2,w
  4335     0134  00F0               	movwf	TMR4_PeriodCountSet@periodVal
  4336     0135  3184  247F  3180   	fcall	_TMR4_PeriodCountSet
  4337     0138                     l2303:
  4338                           
  4339                           ;main.c: 60:         TMR4_Start();
  4340     0138  3184  248E  3180   	fcall	_TMR4_Start
  4341     013B                     l2305:
  4342                           
  4343                           ;main.c: 61:         _delay((unsigned long)((tempo)*(32000000/4000.0)));
  4344     013B  3019               	movlw	25
  4345     013C  00F8               	movwf	??_main+1
  4346     013D  30C2               	movlw	194
  4347     013E  00F7               	movwf	??_main
  4348     013F  3097               	movlw	151
  4349     0140                     u757:
  4350     0140  0B89               	decfsz	9,f
  4351     0141  2940               	goto	u757
  4352     0142  0BF7               	decfsz	??_main,f
  4353     0143  2940               	goto	u757
  4354     0144  0BF8               	decfsz	??_main+1,f
  4355     0145  2940               	goto	u757
  4356     0146  0000               	nop
  4357     0147                     l2307:
  4358                           
  4359                           ;main.c: 62:         TMR2_Stop();
  4360     0147  3184  2491  3180   	fcall	_TMR2_Stop
  4361     014A                     l2309:
  4362                           
  4363                           ;main.c: 65:         TMR2_PeriodCountSet(o1[11]);
  4364     014A  0020               	movlb	0	; select bank0
  4365     014B  0869               	movf	main@o1+23,w
  4366     014C  00F1               	movwf	TMR2_PeriodCountSet@periodVal+1
  4367     014D  0868               	movf	main@o1+22,w
  4368     014E  00F0               	movwf	TMR2_PeriodCountSet@periodVal
  4369     014F  3184  2483  3180   	fcall	_TMR2_PeriodCountSet
  4370     0152                     l2311:
  4371                           
  4372                           ;main.c: 66:         TMR2_Start();
  4373     0152  3184  2494  3180   	fcall	_TMR2_Start
  4374     0155                     l2313:
  4375                           
  4376                           ;main.c: 67:         _delay((unsigned long)((tempo)*(32000000/4000.0)));
  4377     0155  3019               	movlw	25
  4378     0156  00F8               	movwf	??_main+1
  4379     0157  30C2               	movlw	194
  4380     0158  00F7               	movwf	??_main
  4381     0159  3097               	movlw	151
  4382     015A                     u767:
  4383     015A  0B89               	decfsz	9,f
  4384     015B  295A               	goto	u767
  4385     015C  0BF7               	decfsz	??_main,f
  4386     015D  295A               	goto	u767
  4387     015E  0BF8               	decfsz	??_main+1,f
  4388     015F  295A               	goto	u767
  4389     0160  0000               	nop
  4390     0161                     l2315:
  4391                           
  4392                           ;main.c: 68:         TMR2_Stop();
  4393     0161  3184  2491  3180   	fcall	_TMR2_Stop
  4394     0164                     l2317:
  4395                           
  4396                           ;main.c: 71:         TMR2_PeriodCountSet(o2[4]);
  4397     0164  0020               	movlb	0	; select bank0
  4398     0165  0841               	movf	main@o2+9,w
  4399     0166  00F1               	movwf	TMR2_PeriodCountSet@periodVal+1
  4400     0167  0840               	movf	main@o2+8,w
  4401     0168  00F0               	movwf	TMR2_PeriodCountSet@periodVal
  4402     0169  3184  2483  3180   	fcall	_TMR2_PeriodCountSet
  4403     016C                     l2319:
  4404                           
  4405                           ;main.c: 72:         TMR2_Start();
  4406     016C  3184  2494  3180   	fcall	_TMR2_Start
  4407     016F                     l2321:
  4408                           
  4409                           ;main.c: 73:         _delay((unsigned long)((tempo/2)*(32000000/4000.0)));
  4410     016F  300D               	movlw	13
  4411     0170  00F8               	movwf	??_main+1
  4412     0171  3061               	movlw	97
  4413     0172  00F7               	movwf	??_main
  4414     0173  30CA               	movlw	202
  4415     0174                     u777:
  4416     0174  0B89               	decfsz	9,f
  4417     0175  2974               	goto	u777
  4418     0176  0BF7               	decfsz	??_main,f
  4419     0177  2974               	goto	u777
  4420     0178  0BF8               	decfsz	??_main+1,f
  4421     0179  2974               	goto	u777
  4422     017A  3200               	nop2
  4423     017B                     l2323:
  4424                           
  4425                           ;main.c: 74:         TMR2_Stop();
  4426     017B  3184  2491  3180   	fcall	_TMR2_Stop
  4427     017E                     l2325:
  4428                           
  4429                           ;main.c: 76:         TMR2_PeriodCountSet(o2[1]);
  4430     017E  0020               	movlb	0	; select bank0
  4431     017F  083B               	movf	main@o2+3,w
  4432     0180  00F1               	movwf	TMR2_PeriodCountSet@periodVal+1
  4433     0181  083A               	movf	main@o2+2,w
  4434     0182  00F0               	movwf	TMR2_PeriodCountSet@periodVal
  4435     0183  3184  2483  3180   	fcall	_TMR2_PeriodCountSet
  4436     0186                     l2327:
  4437                           
  4438                           ;main.c: 77:         TMR2_Start();
  4439     0186  3184  2494  3180   	fcall	_TMR2_Start
  4440     0189                     l2329:
  4441                           
  4442                           ;main.c: 79:         TMR4_Stop();
  4443     0189  3184  248B  3180   	fcall	_TMR4_Stop
  4444     018C                     l2331:
  4445                           
  4446                           ;main.c: 80:         TMR4_PeriodCountSet(o1[4]);
  4447     018C  0020               	movlb	0	; select bank0
  4448     018D  085B               	movf	main@o1+9,w
  4449     018E  00F1               	movwf	TMR4_PeriodCountSet@periodVal+1
  4450     018F  085A               	movf	main@o1+8,w
  4451     0190  00F0               	movwf	TMR4_PeriodCountSet@periodVal
  4452     0191  3184  247F  3180   	fcall	_TMR4_PeriodCountSet
  4453     0194                     l2333:
  4454                           
  4455                           ;main.c: 81:         TMR4_Start();
  4456     0194  3184  248E  3180   	fcall	_TMR4_Start
  4457     0197                     l2335:
  4458                           
  4459                           ;main.c: 82:         _delay((unsigned long)((tempo)*(32000000/4000.0)));
  4460     0197  3019               	movlw	25
  4461     0198  00F8               	movwf	??_main+1
  4462     0199  30C2               	movlw	194
  4463     019A  00F7               	movwf	??_main
  4464     019B  3097               	movlw	151
  4465     019C                     u787:
  4466     019C  0B89               	decfsz	9,f
  4467     019D  299C               	goto	u787
  4468     019E  0BF7               	decfsz	??_main,f
  4469     019F  299C               	goto	u787
  4470     01A0  0BF8               	decfsz	??_main+1,f
  4471     01A1  299C               	goto	u787
  4472     01A2  0000               	nop
  4473     01A3                     l2337:
  4474                           
  4475                           ;main.c: 83:         TMR2_Stop();
  4476     01A3  3184  2491  3180   	fcall	_TMR2_Stop
  4477     01A6                     l2339:
  4478                           
  4479                           ;main.c: 85:         TMR2_PeriodCountSet(o1[11]);
  4480     01A6  0020               	movlb	0	; select bank0
  4481     01A7  0869               	movf	main@o1+23,w
  4482     01A8  00F1               	movwf	TMR2_PeriodCountSet@periodVal+1
  4483     01A9  0868               	movf	main@o1+22,w
  4484     01AA  00F0               	movwf	TMR2_PeriodCountSet@periodVal
  4485     01AB  3184  2483  3180   	fcall	_TMR2_PeriodCountSet
  4486     01AE                     l2341:
  4487                           
  4488                           ;main.c: 86:         TMR2_Start();
  4489     01AE  3184  2494  3180   	fcall	_TMR2_Start
  4490     01B1                     l2343:
  4491                           
  4492                           ;main.c: 87:         _delay((unsigned long)((tempo-50)*(32000000/4000.0)));
  4493     01B1  3017               	movlw	23
  4494     01B2  00F8               	movwf	??_main+1
  4495     01B3  30BB               	movlw	187
  4496     01B4  00F7               	movwf	??_main
  4497     01B5  301D               	movlw	29
  4498     01B6                     u797:
  4499     01B6  0B89               	decfsz	9,f
  4500     01B7  29B6               	goto	u797
  4501     01B8  0BF7               	decfsz	??_main,f
  4502     01B9  29B6               	goto	u797
  4503     01BA  0BF8               	decfsz	??_main+1,f
  4504     01BB  29B6               	goto	u797
  4505     01BC  0000               	nop
  4506     01BD                     l2345:
  4507                           
  4508                           ;main.c: 88:         TMR4_Stop();
  4509     01BD  3184  248B  3180   	fcall	_TMR4_Stop
  4510     01C0                     l2347:
  4511                           
  4512                           ;main.c: 89:         _delay((unsigned long)((50)*(32000000/4000.0)));
  4513     01C0  3003               	movlw	3
  4514     01C1  00F8               	movwf	??_main+1
  4515     01C2  3008               	movlw	8
  4516     01C3  00F7               	movwf	??_main
  4517     01C4  3077               	movlw	119
  4518     01C5                     u807:
  4519     01C5  0B89               	decfsz	9,f
  4520     01C6  29C5               	goto	u807
  4521     01C7  0BF7               	decfsz	??_main,f
  4522     01C8  29C5               	goto	u807
  4523     01C9  0BF8               	decfsz	??_main+1,f
  4524     01CA  29C5               	goto	u807
  4525     01CB  0000               	nop
  4526     01CC                     l2349:
  4527                           
  4528                           ;main.c: 90:         TMR2_Stop();
  4529     01CC  3184  2491  3180   	fcall	_TMR2_Stop
  4530     01CF                     l2351:
  4531                           
  4532                           ;main.c: 93:         TMR2_PeriodCountSet(o1[8]);
  4533     01CF  0020               	movlb	0	; select bank0
  4534     01D0  0863               	movf	main@o1+17,w
  4535     01D1  00F1               	movwf	TMR2_PeriodCountSet@periodVal+1
  4536     01D2  0862               	movf	main@o1+16,w
  4537     01D3  00F0               	movwf	TMR2_PeriodCountSet@periodVal
  4538     01D4  3184  2483  3180   	fcall	_TMR2_PeriodCountSet
  4539     01D7                     l2353:
  4540                           
  4541                           ;main.c: 94:         TMR2_Start();
  4542     01D7  3184  2494  3180   	fcall	_TMR2_Start
  4543     01DA                     l2355:
  4544                           
  4545                           ;main.c: 96:         TMR4_Stop();
  4546     01DA  3184  248B  3180   	fcall	_TMR4_Stop
  4547     01DD                     l2357:
  4548                           
  4549                           ;main.c: 97:         TMR4_PeriodCountSet(o1[4]);
  4550     01DD  0020               	movlb	0	; select bank0
  4551     01DE  085B               	movf	main@o1+9,w
  4552     01DF  00F1               	movwf	TMR4_PeriodCountSet@periodVal+1
  4553     01E0  085A               	movf	main@o1+8,w
  4554     01E1  00F0               	movwf	TMR4_PeriodCountSet@periodVal
  4555     01E2  3184  247F  3180   	fcall	_TMR4_PeriodCountSet
  4556     01E5                     l2359:
  4557                           
  4558                           ;main.c: 98:         TMR4_Start();
  4559     01E5  3184  248E  3180   	fcall	_TMR4_Start
  4560     01E8                     l2361:
  4561                           
  4562                           ;main.c: 99:         _delay((unsigned long)((tempo/4)*(32000000/4000.0)));
  4563     01E8  3007               	movlw	7
  4564     01E9  00F8               	movwf	??_main+1
  4565     01EA  302C               	movlw	44
  4566     01EB  00F7               	movwf	??_main
  4567     01EC  3032               	movlw	50
  4568     01ED                     u817:
  4569     01ED  0B89               	decfsz	9,f
  4570     01EE  29ED               	goto	u817
  4571     01EF  0BF7               	decfsz	??_main,f
  4572     01F0  29ED               	goto	u817
  4573     01F1  0BF8               	decfsz	??_main+1,f
  4574     01F2  29ED               	goto	u817
  4575     01F3                     l2363:
  4576                           
  4577                           ;main.c: 100:         TMR2_Stop();
  4578     01F3  3184  2491  3180   	fcall	_TMR2_Stop
  4579     01F6                     l2365:
  4580                           
  4581                           ;main.c: 104:         TMR2_PeriodCountSet(o1[9]);
  4582     01F6  0020               	movlb	0	; select bank0
  4583     01F7  0865               	movf	main@o1+19,w
  4584     01F8  00F1               	movwf	TMR2_PeriodCountSet@periodVal+1
  4585     01F9  0864               	movf	main@o1+18,w
  4586     01FA  00F0               	movwf	TMR2_PeriodCountSet@periodVal
  4587     01FB  3184  2483  3180   	fcall	_TMR2_PeriodCountSet
  4588     01FE                     l2367:
  4589                           
  4590                           ;main.c: 105:         TMR2_Start();
  4591     01FE  3184  2494  3180   	fcall	_TMR2_Start
  4592     0201                     l2369:
  4593                           
  4594                           ;main.c: 106:         TMR4_Stop();
  4595     0201  3184  248B  3180   	fcall	_TMR4_Stop
  4596     0204                     l2371:
  4597                           
  4598                           ;main.c: 107:         TMR4_PeriodCountSet(o1[2]);
  4599     0204  0020               	movlb	0	; select bank0
  4600     0205  0857               	movf	main@o1+5,w
  4601     0206  00F1               	movwf	TMR4_PeriodCountSet@periodVal+1
  4602     0207  0856               	movf	main@o1+4,w
  4603     0208  00F0               	movwf	TMR4_PeriodCountSet@periodVal
  4604     0209  3184  247F  3180   	fcall	_TMR4_PeriodCountSet
  4605     020C                     l2373:
  4606                           
  4607                           ;main.c: 108:         TMR4_Start();
  4608     020C  3184  248E  3180   	fcall	_TMR4_Start
  4609     020F                     l2375:
  4610                           
  4611                           ;main.c: 109:         _delay((unsigned long)((tempo/4)*(32000000/4000.0)));
  4612     020F  3007               	movlw	7
  4613     0210  00F8               	movwf	??_main+1
  4614     0211  302C               	movlw	44
  4615     0212  00F7               	movwf	??_main
  4616     0213  3032               	movlw	50
  4617     0214                     u827:
  4618     0214  0B89               	decfsz	9,f
  4619     0215  2A14               	goto	u827
  4620     0216  0BF7               	decfsz	??_main,f
  4621     0217  2A14               	goto	u827
  4622     0218  0BF8               	decfsz	??_main+1,f
  4623     0219  2A14               	goto	u827
  4624     021A                     l2377:
  4625                           
  4626                           ;main.c: 110:         TMR2_Stop();
  4627     021A  3184  2491  3180   	fcall	_TMR2_Stop
  4628     021D                     l2379:
  4629                           
  4630                           ;main.c: 113:         TMR2_PeriodCountSet(o1[11]);
  4631     021D  0020               	movlb	0	; select bank0
  4632     021E  0869               	movf	main@o1+23,w
  4633     021F  00F1               	movwf	TMR2_PeriodCountSet@periodVal+1
  4634     0220  0868               	movf	main@o1+22,w
  4635     0221  00F0               	movwf	TMR2_PeriodCountSet@periodVal
  4636     0222  3184  2483  3180   	fcall	_TMR2_PeriodCountSet
  4637     0225                     l2381:
  4638                           
  4639                           ;main.c: 114:         TMR2_Start();
  4640     0225  3184  2494  3180   	fcall	_TMR2_Start
  4641     0228                     l2383:
  4642                           
  4643                           ;main.c: 116:         TMR4_Stop();
  4644     0228  3184  248B  3180   	fcall	_TMR4_Stop
  4645     022B                     l2385:
  4646                           
  4647                           ;main.c: 117:         TMR4_PeriodCountSet(o1[1]);
  4648     022B  0020               	movlb	0	; select bank0
  4649     022C  0855               	movf	main@o1+3,w
  4650     022D  00F1               	movwf	TMR4_PeriodCountSet@periodVal+1
  4651     022E  0854               	movf	main@o1+2,w
  4652     022F  00F0               	movwf	TMR4_PeriodCountSet@periodVal
  4653     0230  3184  247F  3180   	fcall	_TMR4_PeriodCountSet
  4654     0233                     l2387:
  4655                           
  4656                           ;main.c: 118:         TMR4_Start();
  4657     0233  3184  248E  3180   	fcall	_TMR4_Start
  4658     0236                     l2389:
  4659                           
  4660                           ;main.c: 119:         _delay((unsigned long)((tempo)*(32000000/4000.0)));
  4661     0236  3019               	movlw	25
  4662     0237  00F8               	movwf	??_main+1
  4663     0238  30C2               	movlw	194
  4664     0239  00F7               	movwf	??_main
  4665     023A  3097               	movlw	151
  4666     023B                     u837:
  4667     023B  0B89               	decfsz	9,f
  4668     023C  2A3B               	goto	u837
  4669     023D  0BF7               	decfsz	??_main,f
  4670     023E  2A3B               	goto	u837
  4671     023F  0BF8               	decfsz	??_main+1,f
  4672     0240  2A3B               	goto	u837
  4673     0241  0000               	nop
  4674     0242                     l2391:
  4675                           
  4676                           ;main.c: 120:         TMR2_Stop();
  4677     0242  3184  2491  3180   	fcall	_TMR2_Stop
  4678     0245                     l2393:
  4679                           
  4680                           ;main.c: 121:         TMR4_Stop();
  4681     0245  3184  248B  3180   	fcall	_TMR4_Stop
  4682     0248                     l2395:
  4683                           
  4684                           ;main.c: 123:         TMR2_PeriodCountSet(o1[9]);
  4685     0248  0020               	movlb	0	; select bank0
  4686     0249  0865               	movf	main@o1+19,w
  4687     024A  00F1               	movwf	TMR2_PeriodCountSet@periodVal+1
  4688     024B  0864               	movf	main@o1+18,w
  4689     024C  00F0               	movwf	TMR2_PeriodCountSet@periodVal
  4690     024D  3184  2483  3180   	fcall	_TMR2_PeriodCountSet
  4691     0250                     l2397:
  4692                           
  4693                           ;main.c: 124:         TMR2_Start();
  4694     0250  3184  2494  3180   	fcall	_TMR2_Start
  4695     0253                     l2399:
  4696                           
  4697                           ;main.c: 125:         TMR4_PeriodCountSet(o1[4]);
  4698     0253  0020               	movlb	0	; select bank0
  4699     0254  085B               	movf	main@o1+9,w
  4700     0255  00F1               	movwf	TMR4_PeriodCountSet@periodVal+1
  4701     0256  085A               	movf	main@o1+8,w
  4702     0257  00F0               	movwf	TMR4_PeriodCountSet@periodVal
  4703     0258  3184  247F  3180   	fcall	_TMR4_PeriodCountSet
  4704     025B                     l2401:
  4705                           
  4706                           ;main.c: 126:         TMR4_Start();
  4707     025B  3184  248E  3180   	fcall	_TMR4_Start
  4708     025E                     l2403:
  4709                           
  4710                           ;main.c: 127:         _delay((unsigned long)((tempo)*(32000000/4000.0)));
  4711     025E  3019               	movlw	25
  4712     025F  00F8               	movwf	??_main+1
  4713     0260  30C2               	movlw	194
  4714     0261  00F7               	movwf	??_main
  4715     0262  3097               	movlw	151
  4716     0263                     u847:
  4717     0263  0B89               	decfsz	9,f
  4718     0264  2A63               	goto	u847
  4719     0265  0BF7               	decfsz	??_main,f
  4720     0266  2A63               	goto	u847
  4721     0267  0BF8               	decfsz	??_main+1,f
  4722     0268  2A63               	goto	u847
  4723     0269  0000               	nop
  4724     026A                     l2405:
  4725                           
  4726                           ;main.c: 128:         TMR2_Stop();
  4727     026A  3184  2491  3180   	fcall	_TMR2_Stop
  4728     026D                     l2407:
  4729                           
  4730                           ;main.c: 129:         TMR4_Stop();
  4731     026D  3184  248B  3180   	fcall	_TMR4_Stop
  4732     0270                     l2409:
  4733                           
  4734                           ;main.c: 131:         TMR2_PeriodCountSet(o2[4]);
  4735     0270  0020               	movlb	0	; select bank0
  4736     0271  0841               	movf	main@o2+9,w
  4737     0272  00F1               	movwf	TMR2_PeriodCountSet@periodVal+1
  4738     0273  0840               	movf	main@o2+8,w
  4739     0274  00F0               	movwf	TMR2_PeriodCountSet@periodVal
  4740     0275  3184  2483  3180   	fcall	_TMR2_PeriodCountSet
  4741     0278                     l2411:
  4742                           
  4743                           ;main.c: 132:         TMR2_Start();
  4744     0278  3184  2494  3180   	fcall	_TMR2_Start
  4745     027B                     l2413:
  4746                           
  4747                           ;main.c: 133:         TMR4_PeriodCountSet(o1[6]);
  4748     027B  0020               	movlb	0	; select bank0
  4749     027C  085F               	movf	main@o1+13,w
  4750     027D  00F1               	movwf	TMR4_PeriodCountSet@periodVal+1
  4751     027E  085E               	movf	main@o1+12,w
  4752     027F  00F0               	movwf	TMR4_PeriodCountSet@periodVal
  4753     0280  3184  247F  3180   	fcall	_TMR4_PeriodCountSet
  4754     0283                     l2415:
  4755                           
  4756                           ;main.c: 134:         TMR4_Start();
  4757     0283  3184  248E  3180   	fcall	_TMR4_Start
  4758     0286                     l2417:
  4759                           
  4760                           ;main.c: 135:         _delay((unsigned long)(((tempo/2) - 50)*(32000000/4000.0)));
  4761     0286  300B               	movlw	11
  4762     0287  00F8               	movwf	??_main+1
  4763     0288  305A               	movlw	90
  4764     0289  00F7               	movwf	??_main
  4765     028A  3050               	movlw	80
  4766     028B                     u857:
  4767     028B  0B89               	decfsz	9,f
  4768     028C  2A8B               	goto	u857
  4769     028D  0BF7               	decfsz	??_main,f
  4770     028E  2A8B               	goto	u857
  4771     028F  0BF8               	decfsz	??_main+1,f
  4772     0290  2A8B               	goto	u857
  4773     0291  3200               	nop2
  4774     0292                     l2419:
  4775                           
  4776                           ;main.c: 136:         TMR4_Stop();
  4777     0292  3184  248B  3180   	fcall	_TMR4_Stop
  4778     0295                     l2421:
  4779                           
  4780                           ;main.c: 137:         _delay((unsigned long)((50)*(32000000/4000.0)));
  4781     0295  3003               	movlw	3
  4782     0296  00F8               	movwf	??_main+1
  4783     0297  3008               	movlw	8
  4784     0298  00F7               	movwf	??_main
  4785     0299  3077               	movlw	119
  4786     029A                     u867:
  4787     029A  0B89               	decfsz	9,f
  4788     029B  2A9A               	goto	u867
  4789     029C  0BF7               	decfsz	??_main,f
  4790     029D  2A9A               	goto	u867
  4791     029E  0BF8               	decfsz	??_main+1,f
  4792     029F  2A9A               	goto	u867
  4793     02A0  0000               	nop
  4794     02A1                     l2423:
  4795                           
  4796                           ;main.c: 138:         TMR2_Stop();
  4797     02A1  3184  2491  3180   	fcall	_TMR2_Stop
  4798     02A4                     l2425:
  4799                           
  4800                           ;main.c: 141:         TMR2_PeriodCountSet(o1[8]);
  4801     02A4  0020               	movlb	0	; select bank0
  4802     02A5  0863               	movf	main@o1+17,w
  4803     02A6  00F1               	movwf	TMR2_PeriodCountSet@periodVal+1
  4804     02A7  0862               	movf	main@o1+16,w
  4805     02A8  00F0               	movwf	TMR2_PeriodCountSet@periodVal
  4806     02A9  3184  2483  3180   	fcall	_TMR2_PeriodCountSet
  4807     02AC                     l2427:
  4808                           
  4809                           ;main.c: 142:         TMR2_Start();
  4810     02AC  3184  2494  3180   	fcall	_TMR2_Start
  4811     02AF                     l2429:
  4812                           
  4813                           ;main.c: 143:         TMR4_PeriodCountSet(o1[6]);
  4814     02AF  0020               	movlb	0	; select bank0
  4815     02B0  085F               	movf	main@o1+13,w
  4816     02B1  00F1               	movwf	TMR4_PeriodCountSet@periodVal+1
  4817     02B2  085E               	movf	main@o1+12,w
  4818     02B3  00F0               	movwf	TMR4_PeriodCountSet@periodVal
  4819     02B4  3184  247F  3180   	fcall	_TMR4_PeriodCountSet
  4820     02B7                     l2431:
  4821                           
  4822                           ;main.c: 144:         TMR4_Start();
  4823     02B7  3184  248E  3180   	fcall	_TMR4_Start
  4824     02BA                     l2433:
  4825                           
  4826                           ;main.c: 145:         _delay((unsigned long)((tempo)*(32000000/4000.0)));
  4827     02BA  3019               	movlw	25
  4828     02BB  00F8               	movwf	??_main+1
  4829     02BC  30C2               	movlw	194
  4830     02BD  00F7               	movwf	??_main
  4831     02BE  3097               	movlw	151
  4832     02BF                     u877:
  4833     02BF  0B89               	decfsz	9,f
  4834     02C0  2ABF               	goto	u877
  4835     02C1  0BF7               	decfsz	??_main,f
  4836     02C2  2ABF               	goto	u877
  4837     02C3  0BF8               	decfsz	??_main+1,f
  4838     02C4  2ABF               	goto	u877
  4839     02C5  0000               	nop
  4840     02C6                     l2435:
  4841                           
  4842                           ;main.c: 146:         TMR2_Stop();
  4843     02C6  3184  2491  3180   	fcall	_TMR2_Stop
  4844     02C9                     l2437:
  4845                           
  4846                           ;main.c: 147:         TMR4_Stop();
  4847     02C9  3184  248B  3180   	fcall	_TMR4_Stop
  4848     02CC                     l2439:
  4849                           
  4850                           ;main.c: 149:         TMR2_PeriodCountSet(o1[9]);
  4851     02CC  0020               	movlb	0	; select bank0
  4852     02CD  0865               	movf	main@o1+19,w
  4853     02CE  00F1               	movwf	TMR2_PeriodCountSet@periodVal+1
  4854     02CF  0864               	movf	main@o1+18,w
  4855     02D0  00F0               	movwf	TMR2_PeriodCountSet@periodVal
  4856     02D1  3184  2483  3180   	fcall	_TMR2_PeriodCountSet
  4857     02D4                     l2441:
  4858                           
  4859                           ;main.c: 150:         TMR2_Start();
  4860     02D4  3184  2494  3180   	fcall	_TMR2_Start
  4861     02D7                     l2443:
  4862                           
  4863                           ;main.c: 151:         TMR4_PeriodCountSet(o1[4]);
  4864     02D7  0020               	movlb	0	; select bank0
  4865     02D8  085B               	movf	main@o1+9,w
  4866     02D9  00F1               	movwf	TMR4_PeriodCountSet@periodVal+1
  4867     02DA  085A               	movf	main@o1+8,w
  4868     02DB  00F0               	movwf	TMR4_PeriodCountSet@periodVal
  4869     02DC  3184  247F  3180   	fcall	_TMR4_PeriodCountSet
  4870     02DF                     l2445:
  4871                           
  4872                           ;main.c: 152:         TMR4_Start();
  4873     02DF  3184  248E  3180   	fcall	_TMR4_Start
  4874     02E2                     l2447:
  4875                           
  4876                           ;main.c: 153:         _delay((unsigned long)((tempo)*(32000000/4000.0)));
  4877     02E2  3019               	movlw	25
  4878     02E3  00F8               	movwf	??_main+1
  4879     02E4  30C2               	movlw	194
  4880     02E5  00F7               	movwf	??_main
  4881     02E6  3097               	movlw	151
  4882     02E7                     u887:
  4883     02E7  0B89               	decfsz	9,f
  4884     02E8  2AE7               	goto	u887
  4885     02E9  0BF7               	decfsz	??_main,f
  4886     02EA  2AE7               	goto	u887
  4887     02EB  0BF8               	decfsz	??_main+1,f
  4888     02EC  2AE7               	goto	u887
  4889     02ED  0000               	nop
  4890     02EE                     l2449:
  4891                           
  4892                           ;main.c: 154:         TMR2_Stop();
  4893     02EE  3184  2491  3180   	fcall	_TMR2_Stop
  4894     02F1                     l2451:
  4895                           
  4896                           ;main.c: 155:         TMR4_Stop();
  4897     02F1  3184  248B  3180   	fcall	_TMR4_Stop
  4898     02F4                     l2453:
  4899                           
  4900                           ;main.c: 156:         _delay((unsigned long)((2000)*(32000000/4000.0)));
  4901     02F4  3052               	movlw	82
  4902     02F5  00F8               	movwf	??_main+1
  4903     02F6  302B               	movlw	43
  4904     02F7  00F7               	movwf	??_main
  4905     02F8  3000               	movlw	0
  4906     02F9                     u897:
  4907     02F9  0B89               	decfsz	9,f
  4908     02FA  2AF9               	goto	u897
  4909     02FB  0BF7               	decfsz	??_main,f
  4910     02FC  2AF9               	goto	u897
  4911     02FD  0BF8               	decfsz	??_main+1,f
  4912     02FE  2AF9               	goto	u897
  4913     02FF  3200               	nop2
  4914     0300  291F               	goto	l2293
  4915     0301  3180  28C6         	ljmp	start
  4916     0303                     __end_of_main:
  4917                           
  4918                           	psect	text1
  4919     048B                     __ptext1:	
  4920 ;; *************** function _TMR4_Stop *****************
  4921 ;; Defined at:
  4922 ;;		line 71 in file "mcc_generated_files/timer/src/tmr4.c"
  4923 ;; Parameters:    Size  Location     Type
  4924 ;;		None
  4925 ;; Auto vars:     Size  Location     Type
  4926 ;;		None
  4927 ;; Return value:  Size  Location     Type
  4928 ;;                  1    wreg      void 
  4929 ;; Registers used:
  4930 ;;		None
  4931 ;; Tracked objects:
  4932 ;;		On entry : 0/0
  4933 ;;		On exit  : 0/0
  4934 ;;		Unchanged: 0/0
  4935 ;; Data sizes:     COMMON   BANK0   BANK1   BANK2   BANK3   BANK4   BANK5   BANK6   BANK7   BANK8   BANK9  BANK10  BANK1
      +1  BANK12  BANK13  BANK14  BANK15  BANK16  BANK17  BANK18  BANK19  BANK20  BANK21  BANK22  BANK23  BANK24  BANK25
  4936 ;;      Params:         0       0       0       0       0       0       0       0       0       0       0       0       
      +0       0       0       0       0       0       0       0       0       0       0       0       0       0       0
  4937 ;;      Locals:         0       0       0       0       0       0       0       0       0       0       0       0       
      +0       0       0       0       0       0       0       0       0       0       0       0       0       0       0
  4938 ;;      Temps:          0       0       0       0       0       0       0       0       0       0       0       0       
      +0       0       0       0       0       0       0       0       0       0       0       0       0       0       0
  4939 ;;      Totals:         0       0       0       0       0       0       0       0       0       0       0       0       
      +0       0       0       0       0       0       0       0       0       0       0       0       0       0       0
  4940 ;;Total ram usage:        0 bytes
  4941 ;; Hardware stack levels used: 1
  4942 ;; Hardware stack levels required when called: 1
  4943 ;; This function calls:
  4944 ;;		Nothing
  4945 ;; This function is called by:
  4946 ;;		_main
  4947 ;; This function uses a non-reentrant model
  4948 ;;
  4949                           
  4950     048B                     _TMR4_Stop:	
  4951                           ;psect for function _TMR4_Stop
  4952                           
  4953     048B                     l2051:	
  4954                           ;incstack = 0
  4955                           ; Regs used in _TMR4_Stop: []
  4956                           
  4957                           
  4958                           ;mcc_generated_files/timer/src/tmr4.c: 74:     T4CONbits.TMR4ON = 0;
  4959     048B  0028               	movlb	8	; select bank8
  4960     048C  1117               	bcf	23,2	;volatile
  4961     048D                     l469:
  4962     048D  0008               	return
  4963     048E                     __end_of_TMR4_Stop:
  4964                           
  4965                           	psect	text2
  4966     048E                     __ptext2:	
  4967 ;; *************** function _TMR4_Start *****************
  4968 ;; Defined at:
  4969 ;;		line 65 in file "mcc_generated_files/timer/src/tmr4.c"
  4970 ;; Parameters:    Size  Location     Type
  4971 ;;		None
  4972 ;; Auto vars:     Size  Location     Type
  4973 ;;		None
  4974 ;; Return value:  Size  Location     Type
  4975 ;;                  1    wreg      void 
  4976 ;; Registers used:
  4977 ;;		None
  4978 ;; Tracked objects:
  4979 ;;		On entry : 0/0
  4980 ;;		On exit  : 0/0
  4981 ;;		Unchanged: 0/0
  4982 ;; Data sizes:     COMMON   BANK0   BANK1   BANK2   BANK3   BANK4   BANK5   BANK6   BANK7   BANK8   BANK9  BANK10  BANK1
      +1  BANK12  BANK13  BANK14  BANK15  BANK16  BANK17  BANK18  BANK19  BANK20  BANK21  BANK22  BANK23  BANK24  BANK25
  4983 ;;      Params:         0       0       0       0       0       0       0       0       0       0       0       0       
      +0       0       0       0       0       0       0       0       0       0       0       0       0       0       0
  4984 ;;      Locals:         0       0       0       0       0       0       0       0       0       0       0       0       
      +0       0       0       0       0       0       0       0       0       0       0       0       0       0       0
  4985 ;;      Temps:          0       0       0       0       0       0       0       0       0       0       0       0       
      +0       0       0       0       0       0       0       0       0       0       0       0       0       0       0
  4986 ;;      Totals:         0       0       0       0       0       0       0       0       0       0       0       0       
      +0       0       0       0       0       0       0       0       0       0       0       0       0       0       0
  4987 ;;Total ram usage:        0 bytes
  4988 ;; Hardware stack levels used: 1
  4989 ;; Hardware stack levels required when called: 1
  4990 ;; This function calls:
  4991 ;;		Nothing
  4992 ;; This function is called by:
  4993 ;;		_main
  4994 ;; This function uses a non-reentrant model
  4995 ;;
  4996                           
  4997     048E                     _TMR4_Start:	
  4998                           ;psect for function _TMR4_Start
  4999                           
  5000     048E                     l2049:	
  5001                           ;incstack = 0
  5002                           ; Regs used in _TMR4_Start: []
  5003                           
  5004                           
  5005                           ;mcc_generated_files/timer/src/tmr4.c: 68:     T4CONbits.TMR4ON = 1;
  5006     048E  0028               	movlb	8	; select bank8
  5007     048F  1517               	bsf	23,2	;volatile
  5008     0490                     l466:
  5009     0490  0008               	return
  5010     0491                     __end_of_TMR4_Start:
  5011                           
  5012                           	psect	text3
  5013     047F                     __ptext3:	
  5014 ;; *************** function _TMR4_PeriodCountSet *****************
  5015 ;; Defined at:
  5016 ;;		line 90 in file "mcc_generated_files/timer/src/tmr4.c"
  5017 ;; Parameters:    Size  Location     Type
  5018 ;;  periodVal       2    0[COMMON] unsigned int 
  5019 ;; Auto vars:     Size  Location     Type
  5020 ;;		None
  5021 ;; Return value:  Size  Location     Type
  5022 ;;                  1    wreg      void 
  5023 ;; Registers used:
  5024 ;;		wreg
  5025 ;; Tracked objects:
  5026 ;;		On entry : 0/0
  5027 ;;		On exit  : 0/0
  5028 ;;		Unchanged: 0/0
  5029 ;; Data sizes:     COMMON   BANK0   BANK1   BANK2   BANK3   BANK4   BANK5   BANK6   BANK7   BANK8   BANK9  BANK10  BANK1
      +1  BANK12  BANK13  BANK14  BANK15  BANK16  BANK17  BANK18  BANK19  BANK20  BANK21  BANK22  BANK23  BANK24  BANK25
  5030 ;;      Params:         2       0       0       0       0       0       0       0       0       0       0       0       
      +0       0       0       0       0       0       0       0       0       0       0       0       0       0       0
  5031 ;;      Locals:         0       0       0       0       0       0       0       0       0       0       0       0       
      +0       0       0       0       0       0       0       0       0       0       0       0       0       0       0
  5032 ;;      Temps:          0       0       0       0       0       0       0       0       0       0       0       0       
      +0       0       0       0       0       0       0       0       0       0       0       0       0       0       0
  5033 ;;      Totals:         2       0       0       0       0       0       0       0       0       0       0       0       
      +0       0       0       0       0       0       0       0       0       0       0       0       0       0       0
  5034 ;;Total ram usage:        2 bytes
  5035 ;; Hardware stack levels used: 1
  5036 ;; Hardware stack levels required when called: 1
  5037 ;; This function calls:
  5038 ;;		Nothing
  5039 ;; This function is called by:
  5040 ;;		_main
  5041 ;; This function uses a non-reentrant model
  5042 ;;
  5043                           
  5044     047F                     _TMR4_PeriodCountSet:	
  5045                           ;psect for function _TMR4_PeriodCountSet
  5046                           
  5047     047F                     l2053:	
  5048                           ;incstack = 0
  5049                           ; Regs used in _TMR4_PeriodCountSet: [wreg]
  5050                           
  5051                           
  5052                           ;mcc_generated_files/timer/src/tmr4.c: 90: void TMR4_PeriodCountSet(size_t periodVal);mc
      +                          c_generated_files/timer/src/tmr4.c: 91: {;mcc_generated_files/timer/src/tmr4.c: 92:    P
      +                          R4 = (uint8_t) periodVal;
  5053     047F  0870               	movf	TMR4_PeriodCountSet@periodVal,w
  5054     0480  0028               	movlb	8	; select bank8
  5055     0481  0096               	movwf	22	;volatile
  5056     0482                     l478:
  5057     0482  0008               	return
  5058     0483                     __end_of_TMR4_PeriodCountSet:
  5059                           
  5060                           	psect	text4
  5061     0491                     __ptext4:	
  5062 ;; *************** function _TMR2_Stop *****************
  5063 ;; Defined at:
  5064 ;;		line 71 in file "mcc_generated_files/timer/src/tmr2.c"
  5065 ;; Parameters:    Size  Location     Type
  5066 ;;		None
  5067 ;; Auto vars:     Size  Location     Type
  5068 ;;		None
  5069 ;; Return value:  Size  Location     Type
  5070 ;;                  1    wreg      void 
  5071 ;; Registers used:
  5072 ;;		None
  5073 ;; Tracked objects:
  5074 ;;		On entry : 0/0
  5075 ;;		On exit  : 0/0
  5076 ;;		Unchanged: 0/0
  5077 ;; Data sizes:     COMMON   BANK0   BANK1   BANK2   BANK3   BANK4   BANK5   BANK6   BANK7   BANK8   BANK9  BANK10  BANK1
      +1  BANK12  BANK13  BANK14  BANK15  BANK16  BANK17  BANK18  BANK19  BANK20  BANK21  BANK22  BANK23  BANK24  BANK25
  5078 ;;      Params:         0       0       0       0       0       0       0       0       0       0       0       0       
      +0       0       0       0       0       0       0       0       0       0       0       0       0       0       0
  5079 ;;      Locals:         0       0       0       0       0       0       0       0       0       0       0       0       
      +0       0       0       0       0       0       0       0       0       0       0       0       0       0       0
  5080 ;;      Temps:          0       0       0       0       0       0       0       0       0       0       0       0       
      +0       0       0       0       0       0       0       0       0       0       0       0       0       0       0
  5081 ;;      Totals:         0       0       0       0       0       0       0       0       0       0       0       0       
      +0       0       0       0       0       0       0       0       0       0       0       0       0       0       0
  5082 ;;Total ram usage:        0 bytes
  5083 ;; Hardware stack levels used: 1
  5084 ;; Hardware stack levels required when called: 1
  5085 ;; This function calls:
  5086 ;;		Nothing
  5087 ;; This function is called by:
  5088 ;;		_main
  5089 ;; This function uses a non-reentrant model
  5090 ;;
  5091                           
  5092     0491                     _TMR2_Stop:	
  5093                           ;psect for function _TMR2_Stop
  5094                           
  5095     0491                     l2045:	
  5096                           ;incstack = 0
  5097                           ; Regs used in _TMR2_Stop: []
  5098                           
  5099                           
  5100                           ;mcc_generated_files/timer/src/tmr2.c: 74:     T2CONbits.TMR2ON = 0;
  5101     0491  0020               	movlb	0	; select bank0
  5102     0492  111F               	bcf	31,2	;volatile
  5103     0493                     l425:
  5104     0493  0008               	return
  5105     0494                     __end_of_TMR2_Stop:
  5106                           
  5107                           	psect	text5
  5108     0494                     __ptext5:	
  5109 ;; *************** function _TMR2_Start *****************
  5110 ;; Defined at:
  5111 ;;		line 65 in file "mcc_generated_files/timer/src/tmr2.c"
  5112 ;; Parameters:    Size  Location     Type
  5113 ;;		None
  5114 ;; Auto vars:     Size  Location     Type
  5115 ;;		None
  5116 ;; Return value:  Size  Location     Type
  5117 ;;                  1    wreg      void 
  5118 ;; Registers used:
  5119 ;;		None
  5120 ;; Tracked objects:
  5121 ;;		On entry : 0/0
  5122 ;;		On exit  : 0/0
  5123 ;;		Unchanged: 0/0
  5124 ;; Data sizes:     COMMON   BANK0   BANK1   BANK2   BANK3   BANK4   BANK5   BANK6   BANK7   BANK8   BANK9  BANK10  BANK1
      +1  BANK12  BANK13  BANK14  BANK15  BANK16  BANK17  BANK18  BANK19  BANK20  BANK21  BANK22  BANK23  BANK24  BANK25
  5125 ;;      Params:         0       0       0       0       0       0       0       0       0       0       0       0       
      +0       0       0       0       0       0       0       0       0       0       0       0       0       0       0
  5126 ;;      Locals:         0       0       0       0       0       0       0       0       0       0       0       0       
      +0       0       0       0       0       0       0       0       0       0       0       0       0       0       0
  5127 ;;      Temps:          0       0       0       0       0       0       0       0       0       0       0       0       
      +0       0       0       0       0       0       0       0       0       0       0       0       0       0       0
  5128 ;;      Totals:         0       0       0       0       0       0       0       0       0       0       0       0       
      +0       0       0       0       0       0       0       0       0       0       0       0       0       0       0
  5129 ;;Total ram usage:        0 bytes
  5130 ;; Hardware stack levels used: 1
  5131 ;; Hardware stack levels required when called: 1
  5132 ;; This function calls:
  5133 ;;		Nothing
  5134 ;; This function is called by:
  5135 ;;		_main
  5136 ;; This function uses a non-reentrant model
  5137 ;;
  5138                           
  5139     0494                     _TMR2_Start:	
  5140                           ;psect for function _TMR2_Start
  5141                           
  5142     0494                     l2043:	
  5143                           ;incstack = 0
  5144                           ; Regs used in _TMR2_Start: []
  5145                           
  5146                           
  5147                           ;mcc_generated_files/timer/src/tmr2.c: 68:     T2CONbits.TMR2ON = 1;
  5148     0494  0020               	movlb	0	; select bank0
  5149     0495  151F               	bsf	31,2	;volatile
  5150     0496                     l422:
  5151     0496  0008               	return
  5152     0497                     __end_of_TMR2_Start:
  5153                           
  5154                           	psect	text6
  5155     0483                     __ptext6:	
  5156 ;; *************** function _TMR2_PeriodCountSet *****************
  5157 ;; Defined at:
  5158 ;;		line 90 in file "mcc_generated_files/timer/src/tmr2.c"
  5159 ;; Parameters:    Size  Location     Type
  5160 ;;  periodVal       2    0[COMMON] unsigned int 
  5161 ;; Auto vars:     Size  Location     Type
  5162 ;;		None
  5163 ;; Return value:  Size  Location     Type
  5164 ;;                  1    wreg      void 
  5165 ;; Registers used:
  5166 ;;		wreg
  5167 ;; Tracked objects:
  5168 ;;		On entry : 0/0
  5169 ;;		On exit  : 0/0
  5170 ;;		Unchanged: 0/0
  5171 ;; Data sizes:     COMMON   BANK0   BANK1   BANK2   BANK3   BANK4   BANK5   BANK6   BANK7   BANK8   BANK9  BANK10  BANK1
      +1  BANK12  BANK13  BANK14  BANK15  BANK16  BANK17  BANK18  BANK19  BANK20  BANK21  BANK22  BANK23  BANK24  BANK25
  5172 ;;      Params:         2       0       0       0       0       0       0       0       0       0       0       0       
      +0       0       0       0       0       0       0       0       0       0       0       0       0       0       0
  5173 ;;      Locals:         0       0       0       0       0       0       0       0       0       0       0       0       
      +0       0       0       0       0       0       0       0       0       0       0       0       0       0       0
  5174 ;;      Temps:          0       0       0       0       0       0       0       0       0       0       0       0       
      +0       0       0       0       0       0       0       0       0       0       0       0       0       0       0
  5175 ;;      Totals:         2       0       0       0       0       0       0       0       0       0       0       0       
      +0       0       0       0       0       0       0       0       0       0       0       0       0       0       0
  5176 ;;Total ram usage:        2 bytes
  5177 ;; Hardware stack levels used: 1
  5178 ;; Hardware stack levels required when called: 1
  5179 ;; This function calls:
  5180 ;;		Nothing
  5181 ;; This function is called by:
  5182 ;;		_main
  5183 ;; This function uses a non-reentrant model
  5184 ;;
  5185                           
  5186     0483                     _TMR2_PeriodCountSet:	
  5187                           ;psect for function _TMR2_PeriodCountSet
  5188                           
  5189     0483                     l2047:	
  5190                           ;incstack = 0
  5191                           ; Regs used in _TMR2_PeriodCountSet: [wreg]
  5192                           
  5193                           
  5194                           ;mcc_generated_files/timer/src/tmr2.c: 90: void TMR2_PeriodCountSet(size_t periodVal);mc
      +                          c_generated_files/timer/src/tmr2.c: 91: {;mcc_generated_files/timer/src/tmr2.c: 92:    P
      +                          R2 = (uint8_t) periodVal;
  5195     0483  0870               	movf	TMR2_PeriodCountSet@periodVal,w
  5196     0484  0020               	movlb	0	; select bank0
  5197     0485  009E               	movwf	30	;volatile
  5198     0486                     l434:
  5199     0486  0008               	return
  5200     0487                     __end_of_TMR2_PeriodCountSet:
  5201                           
  5202                           	psect	text7
  5203     03B2                     __ptext7:	
  5204 ;; *************** function _SYSTEM_Initialize *****************
  5205 ;; Defined at:
  5206 ;;		line 39 in file "mcc_generated_files/system/src/system.c"
  5207 ;; Parameters:    Size  Location     Type
  5208 ;;		None
  5209 ;; Auto vars:     Size  Location     Type
  5210 ;;		None
  5211 ;; Return value:  Size  Location     Type
  5212 ;;                  1    wreg      void 
  5213 ;; Registers used:
  5214 ;;		wreg, status,2, status,0, pclath, cstack
  5215 ;; Tracked objects:
  5216 ;;		On entry : 0/0
  5217 ;;		On exit  : 0/0
  5218 ;;		Unchanged: 0/0
  5219 ;; Data sizes:     COMMON   BANK0   BANK1   BANK2   BANK3   BANK4   BANK5   BANK6   BANK7   BANK8   BANK9  BANK10  BANK1
      +1  BANK12  BANK13  BANK14  BANK15  BANK16  BANK17  BANK18  BANK19  BANK20  BANK21  BANK22  BANK23  BANK24  BANK25
  5220 ;;      Params:         0       0       0       0       0       0       0       0       0       0       0       0       
      +0       0       0       0       0       0       0       0       0       0       0       0       0       0       0
  5221 ;;      Locals:         0       0       0       0       0       0       0       0       0       0       0       0       
      +0       0       0       0       0       0       0       0       0       0       0       0       0       0       0
  5222 ;;      Temps:          0       0       0       0       0       0       0       0       0       0       0       0       
      +0       0       0       0       0       0       0       0       0       0       0       0       0       0       0
  5223 ;;      Totals:         0       0       0       0       0       0       0       0       0       0       0       0       
      +0       0       0       0       0       0       0       0       0       0       0       0       0       0       0
  5224 ;;Total ram usage:        0 bytes
  5225 ;; Hardware stack levels used: 1
  5226 ;; Hardware stack levels required when called: 3
  5227 ;; This function calls:
  5228 ;;		_CLOCK_Initialize
  5229 ;;		_I2C1_Initialize
  5230 ;;		_PIN_MANAGER_Initialize
  5231 ;;		_PWM5_Initialize
  5232 ;;		_PWM6_Initialize
  5233 ;;		_TMR2_Initialize
  5234 ;;		_TMR4_Initialize
  5235 ;; This function is called by:
  5236 ;;		_main
  5237 ;; This function uses a non-reentrant model
  5238 ;;
  5239                           
  5240     03B2                     _SYSTEM_Initialize:	
  5241                           ;psect for function _SYSTEM_Initialize
  5242                           
  5243     03B2                     l2041:	
  5244                           ;incstack = 0
  5245                           ; Regs used in _SYSTEM_Initialize: [wreg+status,2+status,0+pclath+cstack]
  5246                           
  5247                           
  5248                           ;mcc_generated_files/system/src/system.c: 41:     CLOCK_Initialize();
  5249     03B2  3184  2457  3183   	fcall	_CLOCK_Initialize
  5250                           
  5251                           ;mcc_generated_files/system/src/system.c: 42:     PIN_MANAGER_Initialize();
  5252     03B5  3183  2303  3183   	fcall	_PIN_MANAGER_Initialize
  5253                           
  5254                           ;mcc_generated_files/system/src/system.c: 43:     I2C1_Initialize();
  5255     03B8  3183  23C8  3183   	fcall	_I2C1_Initialize
  5256                           
  5257                           ;mcc_generated_files/system/src/system.c: 44:     PWM5_Initialize();
  5258     03BB  3184  2440  3183   	fcall	_PWM5_Initialize
  5259                           
  5260                           ;mcc_generated_files/system/src/system.c: 45:     PWM6_Initialize();
  5261     03BE  3184  2434  3183   	fcall	_PWM6_Initialize
  5262                           
  5263                           ;mcc_generated_files/system/src/system.c: 46:     TMR2_Initialize();
  5264     03C1  3184  2425  3183   	fcall	_TMR2_Initialize
  5265                           
  5266                           ;mcc_generated_files/system/src/system.c: 47:     TMR4_Initialize();
  5267     03C4  3184  2404  3183   	fcall	_TMR4_Initialize
  5268     03C7                     l400:
  5269     03C7  0008               	return
  5270     03C8                     __end_of_SYSTEM_Initialize:
  5271                           
  5272                           	psect	text8
  5273     0404                     __ptext8:	
  5274 ;; *************** function _TMR4_Initialize *****************
  5275 ;; Defined at:
  5276 ;;		line 48 in file "mcc_generated_files/timer/src/tmr4.c"
  5277 ;; Parameters:    Size  Location     Type
  5278 ;;		None
  5279 ;; Auto vars:     Size  Location     Type
  5280 ;;		None
  5281 ;; Return value:  Size  Location     Type
  5282 ;;                  1    wreg      void 
  5283 ;; Registers used:
  5284 ;;		wreg, status,2, status,0, pclath, cstack
  5285 ;; Tracked objects:
  5286 ;;		On entry : 0/0
  5287 ;;		On exit  : 0/0
  5288 ;;		Unchanged: 0/0
  5289 ;; Data sizes:     COMMON   BANK0   BANK1   BANK2   BANK3   BANK4   BANK5   BANK6   BANK7   BANK8   BANK9  BANK10  BANK1
      +1  BANK12  BANK13  BANK14  BANK15  BANK16  BANK17  BANK18  BANK19  BANK20  BANK21  BANK22  BANK23  BANK24  BANK25
  5290 ;;      Params:         0       0       0       0       0       0       0       0       0       0       0       0       
      +0       0       0       0       0       0       0       0       0       0       0       0       0       0       0
  5291 ;;      Locals:         0       0       0       0       0       0       0       0       0       0       0       0       
      +0       0       0       0       0       0       0       0       0       0       0       0       0       0       0
  5292 ;;      Temps:          0       0       0       0       0       0       0       0       0       0       0       0       
      +0       0       0       0       0       0       0       0       0       0       0       0       0       0       0
  5293 ;;      Totals:         0       0       0       0       0       0       0       0       0       0       0       0       
      +0       0       0       0       0       0       0       0       0       0       0       0       0       0       0
  5294 ;;Total ram usage:        0 bytes
  5295 ;; Hardware stack levels used: 1
  5296 ;; Hardware stack levels required when called: 2
  5297 ;; This function calls:
  5298 ;;		_TMR4_OverflowCallbackRegister
  5299 ;; This function is called by:
  5300 ;;		_SYSTEM_Initialize
  5301 ;; This function uses a non-reentrant model
  5302 ;;
  5303                           
  5304     0404                     _TMR4_Initialize:	
  5305                           ;psect for function _TMR4_Initialize
  5306                           
  5307     0404                     l1995:	
  5308                           ;incstack = 0
  5309                           ; Regs used in _TMR4_Initialize: [wreg+status,2+status,0+pclath+cstack]
  5310                           
  5311                           
  5312                           ;mcc_generated_files/timer/src/tmr4.c: 52:     PR4 = 0x3F;
  5313     0404  303F               	movlw	63
  5314     0405  0028               	movlb	8	; select bank8
  5315     0406  0096               	movwf	22	;volatile
  5316     0407                     l1997:
  5317                           
  5318                           ;mcc_generated_files/timer/src/tmr4.c: 54:     TMR4 = 0x0;
  5319     0407  0195               	clrf	21	;volatile
  5320     0408                     l1999:
  5321                           
  5322                           ;mcc_generated_files/timer/src/tmr4.c: 57:      PIR2bits.TMR4IF = 0;
  5323     0408  0020               	movlb	0	; select bank0
  5324     0409  1092               	bcf	18,1	;volatile
  5325     040A                     l2001:
  5326                           
  5327                           ;mcc_generated_files/timer/src/tmr4.c: 59:     T4CON = 0x7;
  5328     040A  3007               	movlw	7
  5329     040B  0028               	movlb	8	; select bank8
  5330     040C  0097               	movwf	23	;volatile
  5331     040D                     l2003:
  5332                           
  5333                           ;mcc_generated_files/timer/src/tmr4.c: 62:     TMR4_OverflowCallbackRegister(TMR4_Defaul
      +                          tOverflowCallback);
  5334     040D  3000               	movlw	0
  5335     040E  00F0               	movwf	TMR4_OverflowCallbackRegister@InterruptHandler
  5336     040F  3000               	movlw	0
  5337     0410  00F1               	movwf	TMR4_OverflowCallbackRegister@InterruptHandler+1
  5338     0411  3184  2474  3184   	fcall	_TMR4_OverflowCallbackRegister
  5339     0414                     l463:
  5340     0414  0008               	return
  5341     0415                     __end_of_TMR4_Initialize:
  5342                           
  5343                           	psect	text9
  5344     0474                     __ptext9:	
  5345 ;; *************** function _TMR4_OverflowCallbackRegister *****************
  5346 ;; Defined at:
  5347 ;;		line 95 in file "mcc_generated_files/timer/src/tmr4.c"
  5348 ;; Parameters:    Size  Location     Type
  5349 ;;  InterruptHan    2    0[COMMON] PTR FTN()void 
  5350 ;;		 -> TMR4_DefaultOverflowCallback(1), 
  5351 ;; Auto vars:     Size  Location     Type
  5352 ;;		None
  5353 ;; Return value:  Size  Location     Type
  5354 ;;                  1    wreg      void 
  5355 ;; Registers used:
  5356 ;;		wreg
  5357 ;; Tracked objects:
  5358 ;;		On entry : 0/0
  5359 ;;		On exit  : 0/0
  5360 ;;		Unchanged: 0/0
  5361 ;; Data sizes:     COMMON   BANK0   BANK1   BANK2   BANK3   BANK4   BANK5   BANK6   BANK7   BANK8   BANK9  BANK10  BANK1
      +1  BANK12  BANK13  BANK14  BANK15  BANK16  BANK17  BANK18  BANK19  BANK20  BANK21  BANK22  BANK23  BANK24  BANK25
  5362 ;;      Params:         2       0       0       0       0       0       0       0       0       0       0       0       
      +0       0       0       0       0       0       0       0       0       0       0       0       0       0       0
  5363 ;;      Locals:         0       0       0       0       0       0       0       0       0       0       0       0       
      +0       0       0       0       0       0       0       0       0       0       0       0       0       0       0
  5364 ;;      Temps:          0       0       0       0       0       0       0       0       0       0       0       0       
      +0       0       0       0       0       0       0       0       0       0       0       0       0       0       0
  5365 ;;      Totals:         2       0       0       0       0       0       0       0       0       0       0       0       
      +0       0       0       0       0       0       0       0       0       0       0       0       0       0       0
  5366 ;;Total ram usage:        2 bytes
  5367 ;; Hardware stack levels used: 1
  5368 ;; Hardware stack levels required when called: 1
  5369 ;; This function calls:
  5370 ;;		Nothing
  5371 ;; This function is called by:
  5372 ;;		_TMR4_Initialize
  5373 ;; This function uses a non-reentrant model
  5374 ;;
  5375                           
  5376     0474                     _TMR4_OverflowCallbackRegister:	
  5377                           ;psect for function _TMR4_OverflowCallbackRegister
  5378                           
  5379     0474                     l1907:	
  5380                           ;incstack = 0
  5381                           ; Regs used in _TMR4_OverflowCallbackRegister: [wreg]
  5382                           
  5383                           
  5384                           ;mcc_generated_files/timer/src/tmr4.c: 96:     TMR4_OverflowCallback = InterruptHandler;
  5385     0474  0871               	movf	TMR4_OverflowCallbackRegister@InterruptHandler+1,w
  5386     0475  0020               	movlb	0	; select bank0
  5387     0476  00EB               	movwf	_TMR4_OverflowCallback+1
  5388     0477  0870               	movf	TMR4_OverflowCallbackRegister@InterruptHandler,w
  5389     0478  00EA               	movwf	_TMR4_OverflowCallback
  5390     0479                     l481:
  5391     0479  0008               	return
  5392     047A                     __end_of_TMR4_OverflowCallbackRegister:
  5393                           
  5394                           	psect	text10
  5395     0425                     __ptext10:	
  5396 ;; *************** function _TMR2_Initialize *****************
  5397 ;; Defined at:
  5398 ;;		line 48 in file "mcc_generated_files/timer/src/tmr2.c"
  5399 ;; Parameters:    Size  Location     Type
  5400 ;;		None
  5401 ;; Auto vars:     Size  Location     Type
  5402 ;;		None
  5403 ;; Return value:  Size  Location     Type
  5404 ;;                  1    wreg      void 
  5405 ;; Registers used:
  5406 ;;		wreg, status,2, status,0, pclath, cstack
  5407 ;; Tracked objects:
  5408 ;;		On entry : 0/0
  5409 ;;		On exit  : 0/0
  5410 ;;		Unchanged: 0/0
  5411 ;; Data sizes:     COMMON   BANK0   BANK1   BANK2   BANK3   BANK4   BANK5   BANK6   BANK7   BANK8   BANK9  BANK10  BANK1
      +1  BANK12  BANK13  BANK14  BANK15  BANK16  BANK17  BANK18  BANK19  BANK20  BANK21  BANK22  BANK23  BANK24  BANK25
  5412 ;;      Params:         0       0       0       0       0       0       0       0       0       0       0       0       
      +0       0       0       0       0       0       0       0       0       0       0       0       0       0       0
  5413 ;;      Locals:         0       0       0       0       0       0       0       0       0       0       0       0       
      +0       0       0       0       0       0       0       0       0       0       0       0       0       0       0
  5414 ;;      Temps:          0       0       0       0       0       0       0       0       0       0       0       0       
      +0       0       0       0       0       0       0       0       0       0       0       0       0       0       0
  5415 ;;      Totals:         0       0       0       0       0       0       0       0       0       0       0       0       
      +0       0       0       0       0       0       0       0       0       0       0       0       0       0       0
  5416 ;;Total ram usage:        0 bytes
  5417 ;; Hardware stack levels used: 1
  5418 ;; Hardware stack levels required when called: 2
  5419 ;; This function calls:
  5420 ;;		_TMR2_OverflowCallbackRegister
  5421 ;; This function is called by:
  5422 ;;		_SYSTEM_Initialize
  5423 ;; This function uses a non-reentrant model
  5424 ;;
  5425                           
  5426     0425                     _TMR2_Initialize:	
  5427                           ;psect for function _TMR2_Initialize
  5428                           
  5429     0425                     l1985:	
  5430                           ;incstack = 0
  5431                           ; Regs used in _TMR2_Initialize: [wreg+status,2+status,0+pclath+cstack]
  5432                           
  5433                           
  5434                           ;mcc_generated_files/timer/src/tmr2.c: 52:     PR2 = 0x3F;
  5435     0425  303F               	movlw	63
  5436     0426  0020               	movlb	0	; select bank0
  5437     0427  009E               	movwf	30	;volatile
  5438     0428                     l1987:
  5439                           
  5440                           ;mcc_generated_files/timer/src/tmr2.c: 54:     TMR2 = 0x0;
  5441     0428  019D               	clrf	29	;volatile
  5442     0429                     l1989:
  5443                           
  5444                           ;mcc_generated_files/timer/src/tmr2.c: 57:      PIR1bits.TMR2IF = 0;
  5445     0429  1091               	bcf	17,1	;volatile
  5446     042A                     l1991:
  5447                           
  5448                           ;mcc_generated_files/timer/src/tmr2.c: 59:     T2CON = 0x7;
  5449     042A  3007               	movlw	7
  5450     042B  009F               	movwf	31	;volatile
  5451     042C                     l1993:
  5452                           
  5453                           ;mcc_generated_files/timer/src/tmr2.c: 62:     TMR2_OverflowCallbackRegister(TMR2_Defaul
      +                          tOverflowCallback);
  5454     042C  3000               	movlw	0
  5455     042D  00F0               	movwf	TMR2_OverflowCallbackRegister@InterruptHandler
  5456     042E  3000               	movlw	0
  5457     042F  00F1               	movwf	TMR2_OverflowCallbackRegister@InterruptHandler+1
  5458     0430  3184  247A  3184   	fcall	_TMR2_OverflowCallbackRegister
  5459     0433                     l419:
  5460     0433  0008               	return
  5461     0434                     __end_of_TMR2_Initialize:
  5462                           
  5463                           	psect	text11
  5464     047A                     __ptext11:	
  5465 ;; *************** function _TMR2_OverflowCallbackRegister *****************
  5466 ;; Defined at:
  5467 ;;		line 95 in file "mcc_generated_files/timer/src/tmr2.c"
  5468 ;; Parameters:    Size  Location     Type
  5469 ;;  InterruptHan    2    0[COMMON] PTR FTN()void 
  5470 ;;		 -> TMR2_DefaultOverflowCallback(1), 
  5471 ;; Auto vars:     Size  Location     Type
  5472 ;;		None
  5473 ;; Return value:  Size  Location     Type
  5474 ;;                  1    wreg      void 
  5475 ;; Registers used:
  5476 ;;		wreg
  5477 ;; Tracked objects:
  5478 ;;		On entry : 0/0
  5479 ;;		On exit  : 0/0
  5480 ;;		Unchanged: 0/0
  5481 ;; Data sizes:     COMMON   BANK0   BANK1   BANK2   BANK3   BANK4   BANK5   BANK6   BANK7   BANK8   BANK9  BANK10  BANK1
      +1  BANK12  BANK13  BANK14  BANK15  BANK16  BANK17  BANK18  BANK19  BANK20  BANK21  BANK22  BANK23  BANK24  BANK25
  5482 ;;      Params:         2       0       0       0       0       0       0       0       0       0       0       0       
      +0       0       0       0       0       0       0       0       0       0       0       0       0       0       0
  5483 ;;      Locals:         0       0       0       0       0       0       0       0       0       0       0       0       
      +0       0       0       0       0       0       0       0       0       0       0       0       0       0       0
  5484 ;;      Temps:          0       0       0       0       0       0       0       0       0       0       0       0       
      +0       0       0       0       0       0       0       0       0       0       0       0       0       0       0
  5485 ;;      Totals:         2       0       0       0       0       0       0       0       0       0       0       0       
      +0       0       0       0       0       0       0       0       0       0       0       0       0       0       0
  5486 ;;Total ram usage:        2 bytes
  5487 ;; Hardware stack levels used: 1
  5488 ;; Hardware stack levels required when called: 1
  5489 ;; This function calls:
  5490 ;;		Nothing
  5491 ;; This function is called by:
  5492 ;;		_TMR2_Initialize
  5493 ;; This function uses a non-reentrant model
  5494 ;;
  5495                           
  5496     047A                     _TMR2_OverflowCallbackRegister:	
  5497                           ;psect for function _TMR2_OverflowCallbackRegister
  5498                           
  5499     047A                     l1905:	
  5500                           ;incstack = 0
  5501                           ; Regs used in _TMR2_OverflowCallbackRegister: [wreg]
  5502                           
  5503                           
  5504                           ;mcc_generated_files/timer/src/tmr2.c: 96:     TMR2_OverflowCallback = InterruptHandler;
  5505     047A  0871               	movf	TMR2_OverflowCallbackRegister@InterruptHandler+1,w
  5506     047B  00FA               	movwf	_TMR2_OverflowCallback+1
  5507     047C  0870               	movf	TMR2_OverflowCallbackRegister@InterruptHandler,w
  5508     047D  00F9               	movwf	_TMR2_OverflowCallback
  5509     047E                     l437:
  5510     047E  0008               	return
  5511     047F                     __end_of_TMR2_OverflowCallbackRegister:
  5512                           
  5513                           	psect	text12
  5514     0434                     __ptext12:	
  5515 ;; *************** function _PWM6_Initialize *****************
  5516 ;; Defined at:
  5517 ;;		line 45 in file "mcc_generated_files/pwm/src/pwm6.c"
  5518 ;; Parameters:    Size  Location     Type
  5519 ;;		None
  5520 ;; Auto vars:     Size  Location     Type
  5521 ;;		None
  5522 ;; Return value:  Size  Location     Type
  5523 ;;                  1    wreg      void 
  5524 ;; Registers used:
  5525 ;;		wreg, status,2, status,0
  5526 ;; Tracked objects:
  5527 ;;		On entry : 0/0
  5528 ;;		On exit  : 0/0
  5529 ;;		Unchanged: 0/0
  5530 ;; Data sizes:     COMMON   BANK0   BANK1   BANK2   BANK3   BANK4   BANK5   BANK6   BANK7   BANK8   BANK9  BANK10  BANK1
      +1  BANK12  BANK13  BANK14  BANK15  BANK16  BANK17  BANK18  BANK19  BANK20  BANK21  BANK22  BANK23  BANK24  BANK25
  5531 ;;      Params:         0       0       0       0       0       0       0       0       0       0       0       0       
      +0       0       0       0       0       0       0       0       0       0       0       0       0       0       0
  5532 ;;      Locals:         0       0       0       0       0       0       0       0       0       0       0       0       
      +0       0       0       0       0       0       0       0       0       0       0       0       0       0       0
  5533 ;;      Temps:          0       0       0       0       0       0       0       0       0       0       0       0       
      +0       0       0       0       0       0       0       0       0       0       0       0       0       0       0
  5534 ;;      Totals:         0       0       0       0       0       0       0       0       0       0       0       0       
      +0       0       0       0       0       0       0       0       0       0       0       0       0       0       0
  5535 ;;Total ram usage:        0 bytes
  5536 ;; Hardware stack levels used: 1
  5537 ;; Hardware stack levels required when called: 1
  5538 ;; This function calls:
  5539 ;;		Nothing
  5540 ;; This function is called by:
  5541 ;;		_SYSTEM_Initialize
  5542 ;; This function uses a non-reentrant model
  5543 ;;
  5544                           
  5545     0434                     _PWM6_Initialize:	
  5546                           ;psect for function _PWM6_Initialize
  5547                           
  5548     0434                     l1935:	
  5549                           ;incstack = 0
  5550                           ; Regs used in _PWM6_Initialize: [wreg+status,2+status,0]
  5551                           
  5552                           
  5553                           ;mcc_generated_files/pwm/src/pwm6.c: 50:     PWM6CON = 0x80;
  5554     0434  3080               	movlw	128
  5555     0435  002C               	movlb	12	; select bank12
  5556     0436  009C               	movwf	28	;volatile
  5557                           
  5558                           ;mcc_generated_files/pwm/src/pwm6.c: 53:     PWM6DCH = 0x1F;
  5559     0437  301F               	movlw	31
  5560     0438  009B               	movwf	27	;volatile
  5561                           
  5562                           ;mcc_generated_files/pwm/src/pwm6.c: 56:     PWM6DCL = 0xC0;
  5563     0439  30C0               	movlw	192
  5564     043A  009A               	movwf	26	;volatile
  5565     043B                     l1937:
  5566                           
  5567                           ;mcc_generated_files/pwm/src/pwm6.c: 60:     PWMTMRSbits.P6TSEL = 0x2;
  5568     043B  081F               	movf	31,w	;volatile
  5569     043C  39F3               	andlw	-13
  5570     043D  3808               	iorlw	8
  5571     043E  009F               	movwf	31	;volatile
  5572     043F                     l273:
  5573     043F  0008               	return
  5574     0440                     __end_of_PWM6_Initialize:
  5575                           
  5576                           	psect	text13
  5577     0440                     __ptext13:	
  5578 ;; *************** function _PWM5_Initialize *****************
  5579 ;; Defined at:
  5580 ;;		line 45 in file "mcc_generated_files/pwm/src/pwm5.c"
  5581 ;; Parameters:    Size  Location     Type
  5582 ;;		None
  5583 ;; Auto vars:     Size  Location     Type
  5584 ;;		None
  5585 ;; Return value:  Size  Location     Type
  5586 ;;                  1    wreg      void 
  5587 ;; Registers used:
  5588 ;;		wreg, status,2, status,0
  5589 ;; Tracked objects:
  5590 ;;		On entry : 0/0
  5591 ;;		On exit  : 0/0
  5592 ;;		Unchanged: 0/0
  5593 ;; Data sizes:     COMMON   BANK0   BANK1   BANK2   BANK3   BANK4   BANK5   BANK6   BANK7   BANK8   BANK9  BANK10  BANK1
      +1  BANK12  BANK13  BANK14  BANK15  BANK16  BANK17  BANK18  BANK19  BANK20  BANK21  BANK22  BANK23  BANK24  BANK25
  5594 ;;      Params:         0       0       0       0       0       0       0       0       0       0       0       0       
      +0       0       0       0       0       0       0       0       0       0       0       0       0       0       0
  5595 ;;      Locals:         0       0       0       0       0       0       0       0       0       0       0       0       
      +0       0       0       0       0       0       0       0       0       0       0       0       0       0       0
  5596 ;;      Temps:          0       0       0       0       0       0       0       0       0       0       0       0       
      +0       0       0       0       0       0       0       0       0       0       0       0       0       0       0
  5597 ;;      Totals:         0       0       0       0       0       0       0       0       0       0       0       0       
      +0       0       0       0       0       0       0       0       0       0       0       0       0       0       0
  5598 ;;Total ram usage:        0 bytes
  5599 ;; Hardware stack levels used: 1
  5600 ;; Hardware stack levels required when called: 1
  5601 ;; This function calls:
  5602 ;;		Nothing
  5603 ;; This function is called by:
  5604 ;;		_SYSTEM_Initialize
  5605 ;; This function uses a non-reentrant model
  5606 ;;
  5607                           
  5608     0440                     _PWM5_Initialize:	
  5609                           ;psect for function _PWM5_Initialize
  5610                           
  5611     0440                     l1939:	
  5612                           ;incstack = 0
  5613                           ; Regs used in _PWM5_Initialize: [wreg+status,2+status,0]
  5614                           
  5615                           
  5616                           ;mcc_generated_files/pwm/src/pwm5.c: 50:     PWM5CON = 0x80;
  5617     0440  3080               	movlw	128
  5618     0441  002C               	movlb	12	; select bank12
  5619     0442  0099               	movwf	25	;volatile
  5620                           
  5621                           ;mcc_generated_files/pwm/src/pwm5.c: 53:     PWM5DCH = 0x1F;
  5622     0443  301F               	movlw	31
  5623     0444  0098               	movwf	24	;volatile
  5624                           
  5625                           ;mcc_generated_files/pwm/src/pwm5.c: 56:     PWM5DCL = 0xC0;
  5626     0445  30C0               	movlw	192
  5627     0446  0097               	movwf	23	;volatile
  5628     0447                     l1941:
  5629                           
  5630                           ;mcc_generated_files/pwm/src/pwm5.c: 60:     PWMTMRSbits.P5TSEL = 0x1;
  5631     0447  081F               	movf	31,w	;volatile
  5632     0448  39FC               	andlw	-4
  5633     0449  3801               	iorlw	1
  5634     044A  009F               	movwf	31	;volatile
  5635     044B                     l287:
  5636     044B  0008               	return
  5637     044C                     __end_of_PWM5_Initialize:
  5638                           
  5639                           	psect	text14
  5640     0303                     __ptext14:	
  5641 ;; *************** function _PIN_MANAGER_Initialize *****************
  5642 ;; Defined at:
  5643 ;;		line 38 in file "mcc_generated_files/system/src/pins.c"
  5644 ;; Parameters:    Size  Location     Type
  5645 ;;		None
  5646 ;; Auto vars:     Size  Location     Type
  5647 ;;		None
  5648 ;; Return value:  Size  Location     Type
  5649 ;;                  1    wreg      void 
  5650 ;; Registers used:
  5651 ;;		wreg, status,2
  5652 ;; Tracked objects:
  5653 ;;		On entry : 0/0
  5654 ;;		On exit  : 0/0
  5655 ;;		Unchanged: 0/0
  5656 ;; Data sizes:     COMMON   BANK0   BANK1   BANK2   BANK3   BANK4   BANK5   BANK6   BANK7   BANK8   BANK9  BANK10  BANK1
      +1  BANK12  BANK13  BANK14  BANK15  BANK16  BANK17  BANK18  BANK19  BANK20  BANK21  BANK22  BANK23  BANK24  BANK25
  5657 ;;      Params:         0       0       0       0       0       0       0       0       0       0       0       0       
      +0       0       0       0       0       0       0       0       0       0       0       0       0       0       0
  5658 ;;      Locals:         0       0       0       0       0       0       0       0       0       0       0       0       
      +0       0       0       0       0       0       0       0       0       0       0       0       0       0       0
  5659 ;;      Temps:          0       0       0       0       0       0       0       0       0       0       0       0       
      +0       0       0       0       0       0       0       0       0       0       0       0       0       0       0
  5660 ;;      Totals:         0       0       0       0       0       0       0       0       0       0       0       0       
      +0       0       0       0       0       0       0       0       0       0       0       0       0       0       0
  5661 ;;Total ram usage:        0 bytes
  5662 ;; Hardware stack levels used: 1
  5663 ;; Hardware stack levels required when called: 1
  5664 ;; This function calls:
  5665 ;;		Nothing
  5666 ;; This function is called by:
  5667 ;;		_SYSTEM_Initialize
  5668 ;; This function uses a non-reentrant model
  5669 ;;
  5670                           
  5671     0303                     _PIN_MANAGER_Initialize:	
  5672                           ;psect for function _PIN_MANAGER_Initialize
  5673                           
  5674     0303                     l1943:	
  5675                           ;incstack = 0
  5676                           ; Regs used in _PIN_MANAGER_Initialize: [wreg+status,2]
  5677                           
  5678                           
  5679                           ;mcc_generated_files/system/src/pins.c: 43:     LATA = 0x0;
  5680     0303  0022               	movlb	2	; select bank2
  5681     0304  018C               	clrf	12	;volatile
  5682     0305                     l1945:
  5683                           
  5684                           ;mcc_generated_files/system/src/pins.c: 44:     LATB = 0x50;
  5685     0305  3050               	movlw	80
  5686     0306  008D               	movwf	13	;volatile
  5687     0307                     l1947:
  5688                           
  5689                           ;mcc_generated_files/system/src/pins.c: 45:     LATC = 0x0;
  5690     0307  018E               	clrf	14	;volatile
  5691                           
  5692                           ;mcc_generated_files/system/src/pins.c: 50:     TRISA = 0x1F;
  5693     0308  301F               	movlw	31
  5694     0309  0021               	movlb	1	; select bank1
  5695     030A  008C               	movwf	12	;volatile
  5696                           
  5697                           ;mcc_generated_files/system/src/pins.c: 51:     TRISB = 0xF0;
  5698     030B  30F0               	movlw	240
  5699     030C  008D               	movwf	13	;volatile
  5700                           
  5701                           ;mcc_generated_files/system/src/pins.c: 52:     TRISC = 0xD0;
  5702     030D  30D0               	movlw	208
  5703     030E  008E               	movwf	14	;volatile
  5704                           
  5705                           ;mcc_generated_files/system/src/pins.c: 57:     ANSELA = 0x10;
  5706     030F  3010               	movlw	16
  5707     0310  0023               	movlb	3	; select bank3
  5708     0311  008C               	movwf	12	;volatile
  5709     0312                     l1949:
  5710                           
  5711                           ;mcc_generated_files/system/src/pins.c: 58:     ANSELB = 0x0;
  5712     0312  018D               	clrf	13	;volatile
  5713     0313                     l1951:
  5714                           
  5715                           ;mcc_generated_files/system/src/pins.c: 59:     ANSELC = 0x28;
  5716     0313  3028               	movlw	40
  5717     0314  008E               	movwf	14	;volatile
  5718                           
  5719                           ;mcc_generated_files/system/src/pins.c: 64:     WPUA = 0x0;
  5720     0315  0024               	movlb	4	; select bank4
  5721     0316  018C               	clrf	12	;volatile
  5722                           
  5723                           ;mcc_generated_files/system/src/pins.c: 65:     WPUB = 0x0;
  5724     0317  018D               	clrf	13	;volatile
  5725                           
  5726                           ;mcc_generated_files/system/src/pins.c: 66:     WPUC = 0x0;
  5727     0318  018E               	clrf	14	;volatile
  5728                           
  5729                           ;mcc_generated_files/system/src/pins.c: 72:     ODCONA = 0x0;
  5730     0319  0025               	movlb	5	; select bank5
  5731     031A  018C               	clrf	12	;volatile
  5732                           
  5733                           ;mcc_generated_files/system/src/pins.c: 73:     ODCONB = 0x0;
  5734     031B  018D               	clrf	13	;volatile
  5735                           
  5736                           ;mcc_generated_files/system/src/pins.c: 74:     ODCONC = 0x0;
  5737     031C  018E               	clrf	14	;volatile
  5738     031D                     l1953:
  5739                           
  5740                           ;mcc_generated_files/system/src/pins.c: 78:     SLRCONA = 0x37;
  5741     031D  3037               	movlw	55
  5742     031E  0026               	movlb	6	; select bank6
  5743     031F  008C               	movwf	12	;volatile
  5744     0320                     l1955:
  5745                           
  5746                           ;mcc_generated_files/system/src/pins.c: 79:     SLRCONB = 0xF0;
  5747     0320  30F0               	movlw	240
  5748     0321  008D               	movwf	13	;volatile
  5749     0322                     l1957:
  5750                           
  5751                           ;mcc_generated_files/system/src/pins.c: 80:     SLRCONC = 0xFF;
  5752     0322  30FF               	movlw	255
  5753     0323  008E               	movwf	14	;volatile
  5754     0324                     l1959:
  5755                           
  5756                           ;mcc_generated_files/system/src/pins.c: 84:     INLVLA = 0x3F;
  5757     0324  303F               	movlw	63
  5758     0325  0027               	movlb	7	; select bank7
  5759     0326  008C               	movwf	12	;volatile
  5760     0327                     l1961:
  5761                           
  5762                           ;mcc_generated_files/system/src/pins.c: 85:     INLVLB = 0xF0;
  5763     0327  30F0               	movlw	240
  5764     0328  008D               	movwf	13	;volatile
  5765     0329                     l1963:
  5766                           
  5767                           ;mcc_generated_files/system/src/pins.c: 86:     INLVLC = 0xFF;
  5768     0329  30FF               	movlw	255
  5769     032A  008E               	movwf	14	;volatile
  5770     032B                     l1965:
  5771                           
  5772                           ;mcc_generated_files/system/src/pins.c: 91:     RC5PPS = 2;
  5773     032B  3002               	movlw	2
  5774     032C  003D               	movlb	29	; select bank29
  5775     032D  00A5               	movwf	37	;volatile
  5776     032E                     l1967:
  5777                           
  5778                           ;mcc_generated_files/system/src/pins.c: 92:     RC3PPS = 3;
  5779     032E  3003               	movlw	3
  5780     032F  00A3               	movwf	35	;volatile
  5781     0330                     l1969:
  5782                           
  5783                           ;mcc_generated_files/system/src/pins.c: 93:     SSP1CLKPPS = 0xE;
  5784     0330  300E               	movlw	14
  5785     0331  003C               	movlb	28	; select bank28
  5786     0332  00A0               	movwf	32	;volatile
  5787     0333                     l1971:
  5788                           
  5789                           ;mcc_generated_files/system/src/pins.c: 94:     RB6PPS = 24;
  5790     0333  3018               	movlw	24
  5791     0334  003D               	movlb	29	; select bank29
  5792     0335  009E               	movwf	30	;volatile
  5793     0336                     l1973:
  5794                           
  5795                           ;mcc_generated_files/system/src/pins.c: 95:     SSP1DATPPS = 0xC;
  5796     0336  300C               	movlw	12
  5797     0337  003C               	movlb	28	; select bank28
  5798     0338  00A1               	movwf	33	;volatile
  5799     0339                     l1975:
  5800                           
  5801                           ;mcc_generated_files/system/src/pins.c: 96:     RB4PPS = 25;
  5802     0339  3019               	movlw	25
  5803     033A  003D               	movlb	29	; select bank29
  5804     033B  009C               	movwf	28	;volatile
  5805                           
  5806                           ;mcc_generated_files/system/src/pins.c: 105:     IOCAP = 0x0;
  5807     033C  0027               	movlb	7	; select bank7
  5808     033D  0191               	clrf	17	;volatile
  5809                           
  5810                           ;mcc_generated_files/system/src/pins.c: 106:     IOCAN = 0x0;
  5811     033E  0192               	clrf	18	;volatile
  5812                           
  5813                           ;mcc_generated_files/system/src/pins.c: 107:     IOCAF = 0x0;
  5814     033F  0193               	clrf	19	;volatile
  5815                           
  5816                           ;mcc_generated_files/system/src/pins.c: 108:     IOCBP = 0x0;
  5817     0340  0194               	clrf	20	;volatile
  5818                           
  5819                           ;mcc_generated_files/system/src/pins.c: 109:     IOCBN = 0x0;
  5820     0341  0195               	clrf	21	;volatile
  5821                           
  5822                           ;mcc_generated_files/system/src/pins.c: 110:     IOCBF = 0x0;
  5823     0342  0196               	clrf	22	;volatile
  5824                           
  5825                           ;mcc_generated_files/system/src/pins.c: 111:     IOCCP = 0x0;
  5826     0343  0197               	clrf	23	;volatile
  5827                           
  5828                           ;mcc_generated_files/system/src/pins.c: 112:     IOCCN = 0x0;
  5829     0344  0198               	clrf	24	;volatile
  5830                           
  5831                           ;mcc_generated_files/system/src/pins.c: 113:     IOCCF = 0x0;
  5832     0345  0199               	clrf	25	;volatile
  5833     0346                     l365:
  5834     0346  0008               	return
  5835     0347                     __end_of_PIN_MANAGER_Initialize:
  5836                           
  5837                           	psect	text15
  5838     03C8                     __ptext15:	
  5839 ;; *************** function _I2C1_Initialize *****************
  5840 ;; Defined at:
  5841 ;;		line 114 in file "mcc_generated_files/i2c_host/src/mssp1.c"
  5842 ;; Parameters:    Size  Location     Type
  5843 ;;		None
  5844 ;; Auto vars:     Size  Location     Type
  5845 ;;		None
  5846 ;; Return value:  Size  Location     Type
  5847 ;;                  1    wreg      void 
  5848 ;; Registers used:
  5849 ;;		wreg, status,2, status,0, pclath, cstack
  5850 ;; Tracked objects:
  5851 ;;		On entry : 0/0
  5852 ;;		On exit  : 0/0
  5853 ;;		Unchanged: 0/0
  5854 ;; Data sizes:     COMMON   BANK0   BANK1   BANK2   BANK3   BANK4   BANK5   BANK6   BANK7   BANK8   BANK9  BANK10  BANK1
      +1  BANK12  BANK13  BANK14  BANK15  BANK16  BANK17  BANK18  BANK19  BANK20  BANK21  BANK22  BANK23  BANK24  BANK25
  5855 ;;      Params:         0       0       0       0       0       0       0       0       0       0       0       0       
      +0       0       0       0       0       0       0       0       0       0       0       0       0       0       0
  5856 ;;      Locals:         0       0       0       0       0       0       0       0       0       0       0       0       
      +0       0       0       0       0       0       0       0       0       0       0       0       0       0       0
  5857 ;;      Temps:          0       0       0       0       0       0       0       0       0       0       0       0       
      +0       0       0       0       0       0       0       0       0       0       0       0       0       0       0
  5858 ;;      Totals:         0       0       0       0       0       0       0       0       0       0       0       0       
      +0       0       0       0       0       0       0       0       0       0       0       0       0       0       0
  5859 ;;Total ram usage:        0 bytes
  5860 ;; Hardware stack levels used: 1
  5861 ;; Hardware stack levels required when called: 2
  5862 ;; This function calls:
  5863 ;;		_I2C1_CallbackRegister
  5864 ;;		_I2C1_InterruptsEnable
  5865 ;; This function is called by:
  5866 ;;		_SYSTEM_Initialize
  5867 ;; This function uses a non-reentrant model
  5868 ;;
  5869                           
  5870     03C8                     _I2C1_Initialize:	
  5871                           ;psect for function _I2C1_Initialize
  5872                           
  5873     03C8                     l1909:	
  5874                           ;incstack = 0
  5875                           ; Regs used in _I2C1_Initialize: [wreg+status,2+status,0+pclath+cstack]
  5876                           
  5877                           
  5878                           ;mcc_generated_files/i2c_host/src/mssp1.c: 117:     SSP1STAT = 0x80;
  5879     03C8  3080               	movlw	128
  5880     03C9  0024               	movlb	4	; select bank4
  5881     03CA  0094               	movwf	20	;volatile
  5882                           
  5883                           ;mcc_generated_files/i2c_host/src/mssp1.c: 119:     SSP1CON1 = 0x8;
  5884     03CB  3008               	movlw	8
  5885     03CC  0095               	movwf	21	;volatile
  5886     03CD                     l1911:
  5887                           
  5888                           ;mcc_generated_files/i2c_host/src/mssp1.c: 121:     SSP1CON2 = 0x0;
  5889     03CD  0196               	clrf	22	;volatile
  5890     03CE                     l1913:
  5891                           
  5892                           ;mcc_generated_files/i2c_host/src/mssp1.c: 123:     SSP1CON3 = 0x0;
  5893     03CE  0197               	clrf	23	;volatile
  5894                           
  5895                           ;mcc_generated_files/i2c_host/src/mssp1.c: 125:     SSP1ADD = 0x4F;
  5896     03CF  304F               	movlw	79
  5897     03D0  0092               	movwf	18	;volatile
  5898     03D1                     l1915:
  5899                           
  5900                           ;mcc_generated_files/i2c_host/src/mssp1.c: 126:     I2C1_InterruptsEnable();
  5901     03D1  3184  2487  3183   	fcall	_I2C1_InterruptsEnable
  5902                           
  5903                           ;mcc_generated_files/i2c_host/src/mssp1.c: 127:     I2C1_CallbackRegister(I2C1_DefaultCa
      +                          llback);
  5904     03D4  3000               	movlw	0
  5905     03D5  00F0               	movwf	I2C1_CallbackRegister@callbackHandler
  5906     03D6  3000               	movlw	0
  5907     03D7  00F1               	movwf	I2C1_CallbackRegister@callbackHandler+1
  5908     03D8  3184  244C  3183   	fcall	_I2C1_CallbackRegister
  5909     03DB                     l1917:
  5910                           
  5911                           ;mcc_generated_files/i2c_host/src/mssp1.c: 128:     SSP1CON1bits.SSPEN = 1;
  5912     03DB  0024               	movlb	4	; select bank4
  5913     03DC  1695               	bsf	21,5	;volatile
  5914     03DD                     l115:
  5915     03DD  0008               	return
  5916     03DE                     __end_of_I2C1_Initialize:
  5917                           
  5918                           	psect	text16
  5919     0487                     __ptext16:	
  5920 ;; *************** function _I2C1_InterruptsEnable *****************
  5921 ;; Defined at:
  5922 ;;		line 467 in file "mcc_generated_files/i2c_host/src/mssp1.c"
  5923 ;; Parameters:    Size  Location     Type
  5924 ;;		None
  5925 ;; Auto vars:     Size  Location     Type
  5926 ;;		None
  5927 ;; Return value:  Size  Location     Type
  5928 ;;                  1    wreg      void 
  5929 ;; Registers used:
  5930 ;;		None
  5931 ;; Tracked objects:
  5932 ;;		On entry : 0/0
  5933 ;;		On exit  : 0/0
  5934 ;;		Unchanged: 0/0
  5935 ;; Data sizes:     COMMON   BANK0   BANK1   BANK2   BANK3   BANK4   BANK5   BANK6   BANK7   BANK8   BANK9  BANK10  BANK1
      +1  BANK12  BANK13  BANK14  BANK15  BANK16  BANK17  BANK18  BANK19  BANK20  BANK21  BANK22  BANK23  BANK24  BANK25
  5936 ;;      Params:         0       0       0       0       0       0       0       0       0       0       0       0       
      +0       0       0       0       0       0       0       0       0       0       0       0       0       0       0
  5937 ;;      Locals:         0       0       0       0       0       0       0       0       0       0       0       0       
      +0       0       0       0       0       0       0       0       0       0       0       0       0       0       0
  5938 ;;      Temps:          0       0       0       0       0       0       0       0       0       0       0       0       
      +0       0       0       0       0       0       0       0       0       0       0       0       0       0       0
  5939 ;;      Totals:         0       0       0       0       0       0       0       0       0       0       0       0       
      +0       0       0       0       0       0       0       0       0       0       0       0       0       0       0
  5940 ;;Total ram usage:        0 bytes
  5941 ;; Hardware stack levels used: 1
  5942 ;; Hardware stack levels required when called: 1
  5943 ;; This function calls:
  5944 ;;		Nothing
  5945 ;; This function is called by:
  5946 ;;		_I2C1_Initialize
  5947 ;; This function uses a non-reentrant model
  5948 ;;
  5949                           
  5950     0487                     _I2C1_InterruptsEnable:	
  5951                           ;psect for function _I2C1_InterruptsEnable
  5952                           
  5953     0487                     l1897:	
  5954                           ;incstack = 0
  5955                           ; Regs used in _I2C1_InterruptsEnable: []
  5956                           
  5957                           
  5958                           ;mcc_generated_files/i2c_host/src/mssp1.c: 469:     PIE1bits.SSP1IE = 1;
  5959     0487  0021               	movlb	1	; select bank1
  5960     0488  1591               	bsf	17,3	;volatile
  5961                           
  5962                           ;mcc_generated_files/i2c_host/src/mssp1.c: 470:     PIE1bits.BCL1IE = 1;
  5963     0489  1511               	bsf	17,2	;volatile
  5964     048A                     l250:
  5965     048A  0008               	return
  5966     048B                     __end_of_I2C1_InterruptsEnable:
  5967                           
  5968                           	psect	text17
  5969     044C                     __ptext17:	
  5970 ;; *************** function _I2C1_CallbackRegister *****************
  5971 ;; Defined at:
  5972 ;;		line 211 in file "mcc_generated_files/i2c_host/src/mssp1.c"
  5973 ;; Parameters:    Size  Location     Type
  5974 ;;  callbackHand    2    0[COMMON] PTR FTN()void 
  5975 ;;		 -> I2C1_DefaultCallback(1), 
  5976 ;; Auto vars:     Size  Location     Type
  5977 ;;		None
  5978 ;; Return value:  Size  Location     Type
  5979 ;;                  1    wreg      void 
  5980 ;; Registers used:
  5981 ;;		wreg, status,2, status,0
  5982 ;; Tracked objects:
  5983 ;;		On entry : 0/0
  5984 ;;		On exit  : 0/0
  5985 ;;		Unchanged: 0/0
  5986 ;; Data sizes:     COMMON   BANK0   BANK1   BANK2   BANK3   BANK4   BANK5   BANK6   BANK7   BANK8   BANK9  BANK10  BANK1
      +1  BANK12  BANK13  BANK14  BANK15  BANK16  BANK17  BANK18  BANK19  BANK20  BANK21  BANK22  BANK23  BANK24  BANK25
  5987 ;;      Params:         2       0       0       0       0       0       0       0       0       0       0       0       
      +0       0       0       0       0       0       0       0       0       0       0       0       0       0       0
  5988 ;;      Locals:         0       0       0       0       0       0       0       0       0       0       0       0       
      +0       0       0       0       0       0       0       0       0       0       0       0       0       0       0
  5989 ;;      Temps:          0       0       0       0       0       0       0       0       0       0       0       0       
      +0       0       0       0       0       0       0       0       0       0       0       0       0       0       0
  5990 ;;      Totals:         2       0       0       0       0       0       0       0       0       0       0       0       
      +0       0       0       0       0       0       0       0       0       0       0       0       0       0       0
  5991 ;;Total ram usage:        2 bytes
  5992 ;; Hardware stack levels used: 1
  5993 ;; Hardware stack levels required when called: 1
  5994 ;; This function calls:
  5995 ;;		Nothing
  5996 ;; This function is called by:
  5997 ;;		_I2C1_Initialize
  5998 ;;		_I2C1_Deinitialize
  5999 ;; This function uses a non-reentrant model
  6000 ;;
  6001                           
  6002     044C                     _I2C1_CallbackRegister:	
  6003                           ;psect for function _I2C1_CallbackRegister
  6004                           
  6005     044C                     l1899:	
  6006                           ;incstack = 0
  6007                           ; Regs used in _I2C1_CallbackRegister: [wreg+status,2+status,0]
  6008                           
  6009                           
  6010                           ;mcc_generated_files/i2c_host/src/mssp1.c: 211: void I2C1_CallbackRegister(void (*callba
      +                          ckHandler)(void));mcc_generated_files/i2c_host/src/mssp1.c: 212: {;mcc_generated_files/i
      +                          2c_host/src/mssp1.c: 213:     if (callbackHandler != ((void*)0))
  6011     044C  0870               	movf	I2C1_CallbackRegister@callbackHandler,w
  6012     044D  0471               	iorwf	I2C1_CallbackRegister@callbackHandler+1,w
  6013     044E  1903               	btfsc	3,2
  6014     044F  2C51               	goto	u561
  6015     0450  2C52               	goto	u560
  6016     0451                     u561:
  6017     0451  2C56               	goto	l142
  6018     0452                     u560:
  6019     0452                     l1901:
  6020                           
  6021                           ;mcc_generated_files/i2c_host/src/mssp1.c: 214:     {;mcc_generated_files/i2c_host/src/m
      +                          ssp1.c: 215:         I2C1_Callback = callbackHandler;
  6022     0452  0871               	movf	I2C1_CallbackRegister@callbackHandler+1,w
  6023     0453  00FC               	movwf	_I2C1_Callback+1
  6024     0454  0870               	movf	I2C1_CallbackRegister@callbackHandler,w
  6025     0455  00FB               	movwf	_I2C1_Callback
  6026     0456                     l142:
  6027     0456  0008               	return
  6028     0457                     __end_of_I2C1_CallbackRegister:
  6029                           
  6030                           	psect	text18
  6031     0457                     __ptext18:	
  6032 ;; *************** function _CLOCK_Initialize *****************
  6033 ;; Defined at:
  6034 ;;		line 39 in file "mcc_generated_files/system/src/clock.c"
  6035 ;; Parameters:    Size  Location     Type
  6036 ;;		None
  6037 ;; Auto vars:     Size  Location     Type
  6038 ;;		None
  6039 ;; Return value:  Size  Location     Type
  6040 ;;                  1    wreg      void 
  6041 ;; Registers used:
  6042 ;;		wreg, status,2
  6043 ;; Tracked objects:
  6044 ;;		On entry : 0/0
  6045 ;;		On exit  : 0/0
  6046 ;;		Unchanged: 0/0
  6047 ;; Data sizes:     COMMON   BANK0   BANK1   BANK2   BANK3   BANK4   BANK5   BANK6   BANK7   BANK8   BANK9  BANK10  BANK1
      +1  BANK12  BANK13  BANK14  BANK15  BANK16  BANK17  BANK18  BANK19  BANK20  BANK21  BANK22  BANK23  BANK24  BANK25
  6048 ;;      Params:         0       0       0       0       0       0       0       0       0       0       0       0       
      +0       0       0       0       0       0       0       0       0       0       0       0       0       0       0
  6049 ;;      Locals:         0       0       0       0       0       0       0       0       0       0       0       0       
      +0       0       0       0       0       0       0       0       0       0       0       0       0       0       0
  6050 ;;      Temps:          0       0       0       0       0       0       0       0       0       0       0       0       
      +0       0       0       0       0       0       0       0       0       0       0       0       0       0       0
  6051 ;;      Totals:         0       0       0       0       0       0       0       0       0       0       0       0       
      +0       0       0       0       0       0       0       0       0       0       0       0       0       0       0
  6052 ;;Total ram usage:        0 bytes
  6053 ;; Hardware stack levels used: 1
  6054 ;; Hardware stack levels required when called: 1
  6055 ;; This function calls:
  6056 ;;		Nothing
  6057 ;; This function is called by:
  6058 ;;		_SYSTEM_Initialize
  6059 ;; This function uses a non-reentrant model
  6060 ;;
  6061                           
  6062     0457                     _CLOCK_Initialize:	
  6063                           ;psect for function _CLOCK_Initialize
  6064                           
  6065     0457                     l1977:	
  6066                           ;incstack = 0
  6067                           ; Regs used in _CLOCK_Initialize: [wreg+status,2]
  6068                           
  6069                           
  6070                           ;mcc_generated_files/system/src/clock.c: 42:     OSCCON1 = (0 << 0x0)
  6071     0457  3060               	movlw	96
  6072     0458  0032               	movlb	18	; select bank18
  6073     0459  0099               	movwf	25	;volatile
  6074     045A                     l1979:
  6075                           
  6076                           ;mcc_generated_files/system/src/clock.c: 44:     OSCCON3 = (0 << 0x6)
  6077     045A  019B               	clrf	27	;volatile
  6078     045B                     l1981:
  6079                           
  6080                           ;mcc_generated_files/system/src/clock.c: 46:     OSCEN = (0 << 0x7)
  6081     045B  019D               	clrf	29	;volatile
  6082                           
  6083                           ;mcc_generated_files/system/src/clock.c: 51:     OSCFRQ = (7 << 0x0);
  6084     045C  3007               	movlw	7
  6085     045D  009F               	movwf	31	;volatile
  6086     045E                     l1983:
  6087                           
  6088                           ;mcc_generated_files/system/src/clock.c: 52:     OSCSTAT1 =
  6089     045E  019E               	clrf	30	;volatile
  6090     045F  019C               	clrf	28	;volatile
  6091     0460                     l383:
  6092     0460  0008               	return
  6093     0461                     __end_of_CLOCK_Initialize:
  6094                           
  6095                           	psect	text19
  6096     0377                     __ptext19:	
  6097 ;; *************** function _I2C1_Write *****************
  6098 ;; Defined at:
  6099 ;;		line 142 in file "mcc_generated_files/i2c_host/src/mssp1.c"
  6100 ;; Parameters:    Size  Location     Type
  6101 ;;  address         2    1[COMMON] unsigned short 
  6102 ;;  data            1    3[COMMON] PTR unsigned char 
  6103 ;;		 -> main@dataWrite(2), 
  6104 ;;  dataLength      2    4[COMMON] unsigned int 
  6105 ;; Auto vars:     Size  Location     Type
  6106 ;;  retStatus       1    6[COMMON] _Bool 
  6107 ;; Return value:  Size  Location     Type
  6108 ;;                  1    wreg      _Bool 
  6109 ;; Registers used:
  6110 ;;		wreg, status,2, status,0, pclath, cstack
  6111 ;; Tracked objects:
  6112 ;;		On entry : 0/0
  6113 ;;		On exit  : 0/0
  6114 ;;		Unchanged: 0/0
  6115 ;; Data sizes:     COMMON   BANK0   BANK1   BANK2   BANK3   BANK4   BANK5   BANK6   BANK7   BANK8   BANK9  BANK10  BANK1
      +1  BANK12  BANK13  BANK14  BANK15  BANK16  BANK17  BANK18  BANK19  BANK20  BANK21  BANK22  BANK23  BANK24  BANK25
  6116 ;;      Params:         5       0       0       0       0       0       0       0       0       0       0       0       
      +0       0       0       0       0       0       0       0       0       0       0       0       0       0       0
  6117 ;;      Locals:         1       0       0       0       0       0       0       0       0       0       0       0       
      +0       0       0       0       0       0       0       0       0       0       0       0       0       0       0
  6118 ;;      Temps:          0       0       0       0       0       0       0       0       0       0       0       0       
      +0       0       0       0       0       0       0       0       0       0       0       0       0       0       0
  6119 ;;      Totals:         6       0       0       0       0       0       0       0       0       0       0       0       
      +0       0       0       0       0       0       0       0       0       0       0       0       0       0       0
  6120 ;;Total ram usage:        6 bytes
  6121 ;; Hardware stack levels used: 1
  6122 ;; Hardware stack levels required when called: 3
  6123 ;; This function calls:
  6124 ;;		_I2C1_IsBusy
  6125 ;;		_I2C1_WriteStart
  6126 ;; This function is called by:
  6127 ;;		_main
  6128 ;; This function uses a non-reentrant model
  6129 ;;
  6130                           
  6131     0377                     _I2C1_Write:	
  6132                           ;psect for function _I2C1_Write
  6133                           
  6134     0377                     l2005:	
  6135                           ;incstack = 0
  6136                           ; Regs used in _I2C1_Write: [wreg+status,2+status,0+pclath+cstack]
  6137                           
  6138                           
  6139                           ;mcc_generated_files/i2c_host/src/mssp1.c: 142: _Bool I2C1_Write(uint16_t address, uint8
      +                          _t *data, size_t dataLength);mcc_generated_files/i2c_host/src/mssp1.c: 143: {;mcc_genera
      +                          ted_files/i2c_host/src/mssp1.c: 144:     _Bool retStatus = 0;
  6140     0377  01F6               	clrf	I2C1_Write@retStatus
  6141     0378                     l2007:
  6142                           
  6143                           ;mcc_generated_files/i2c_host/src/mssp1.c: 145:     if (!I2C1_IsBusy())
  6144     0378  3184  2415  3183   	fcall	_I2C1_IsBusy
  6145     037B  3A00               	xorlw	0
  6146     037C  1D03               	skipz
  6147     037D  2B7F               	goto	u591
  6148     037E  2B80               	goto	u590
  6149     037F                     u591:
  6150     037F  2B98               	goto	l2027
  6151     0380                     u590:
  6152     0380                     l2009:
  6153                           
  6154                           ;mcc_generated_files/i2c_host/src/mssp1.c: 146:     {;mcc_generated_files/i2c_host/src/m
      +                          ssp1.c: 147:         i2c1Status.busy = 1;
  6155     0380  3001               	movlw	1
  6156     0381  0021               	movlb	1	; select bank1
  6157     0382  00D0               	movwf	_i2c1Status^(0+128)	;volatile
  6158                           
  6159                           ;mcc_generated_files/i2c_host/src/mssp1.c: 148:         i2c1Status.address = address;
  6160     0383  0872               	movf	I2C1_Write@address+1,w
  6161     0384  00D2               	movwf	((_i2c1Status+1)^(0+128)+1)	;volatile
  6162     0385  0871               	movf	I2C1_Write@address,w
  6163     0386  00D1               	movwf	(_i2c1Status^(0+128)+1)	;volatile
  6164     0387                     l2011:
  6165                           
  6166                           ;mcc_generated_files/i2c_host/src/mssp1.c: 149:         i2c1Status.switchToRead = 0;
  6167     0387  01DA               	clrf	(_i2c1Status^(0+128)+10)	;volatile
  6168     0388                     l2013:
  6169                           
  6170                           ;mcc_generated_files/i2c_host/src/mssp1.c: 150:         i2c1Status.writePtr = data;
  6171     0388  0873               	movf	I2C1_Write@data,w
  6172     0389  00D3               	movwf	(low ((_i2c1Status| 0+3)))^(0+128)	;volatile
  6173     038A                     l2015:
  6174                           
  6175                           ;mcc_generated_files/i2c_host/src/mssp1.c: 151:         i2c1Status.writeLength = dataLen
      +                          gth;
  6176     038A  0875               	movf	I2C1_Write@dataLength+1,w
  6177     038B  00D5               	movwf	((_i2c1Status+1)^(0+128)+4)	;volatile
  6178     038C  0874               	movf	I2C1_Write@dataLength,w
  6179     038D  00D4               	movwf	(_i2c1Status^(0+128)+4)	;volatile
  6180     038E                     l2017:
  6181                           
  6182                           ;mcc_generated_files/i2c_host/src/mssp1.c: 152:         i2c1Status.readPtr = ((void*)0);
  6183     038E  01D6               	clrf	(low ((_i2c1Status| 0+6)))^(0+128)	;volatile
  6184     038F  01D7               	clrf	((low ((_i2c1Status| 0+6))+1))^(0+128)	;volatile
  6185     0390                     l2019:
  6186                           
  6187                           ;mcc_generated_files/i2c_host/src/mssp1.c: 153:         i2c1Status.readLength = 0;
  6188     0390  01D8               	clrf	(_i2c1Status^(0+128)+8)	;volatile
  6189     0391  01D9               	clrf	((_i2c1Status+1)^(0+128)+8)	;volatile
  6190     0392                     l2021:
  6191                           
  6192                           ;mcc_generated_files/i2c_host/src/mssp1.c: 154:         i2c1Status.errorState = I2C_ERRO
      +                          R_NONE;
  6193     0392  01DB               	clrf	(_i2c1Status^(0+128)+11)	;volatile
  6194     0393                     l2023:
  6195                           
  6196                           ;mcc_generated_files/i2c_host/src/mssp1.c: 155:         I2C1_WriteStart();
  6197     0393  3184  2461  3183   	fcall	_I2C1_WriteStart
  6198     0396                     l2025:
  6199                           
  6200                           ;mcc_generated_files/i2c_host/src/mssp1.c: 156:         retStatus = 1;
  6201     0396  01F6               	clrf	I2C1_Write@retStatus
  6202     0397  0AF6               	incf	I2C1_Write@retStatus,f
  6203     0398                     l2027:
  6204                           
  6205                           ;mcc_generated_files/i2c_host/src/mssp1.c: 158:     return retStatus;
  6206     0398  0876               	movf	I2C1_Write@retStatus,w
  6207     0399                     l122:
  6208     0399  0008               	return
  6209     039A                     __end_of_I2C1_Write:
  6210                           
  6211                           	psect	text20
  6212     0461                     __ptext20:	
  6213 ;; *************** function _I2C1_WriteStart *****************
  6214 ;; Defined at:
  6215 ;;		line 238 in file "mcc_generated_files/i2c_host/src/mssp1.c"
  6216 ;; Parameters:    Size  Location     Type
  6217 ;;		None
  6218 ;; Auto vars:     Size  Location     Type
  6219 ;;		None
  6220 ;; Return value:  Size  Location     Type
  6221 ;;                  1    wreg      void 
  6222 ;; Registers used:
  6223 ;;		wreg, status,2, status,0, pclath, cstack
  6224 ;; Tracked objects:
  6225 ;;		On entry : 0/0
  6226 ;;		On exit  : 0/0
  6227 ;;		Unchanged: 0/0
  6228 ;; Data sizes:     COMMON   BANK0   BANK1   BANK2   BANK3   BANK4   BANK5   BANK6   BANK7   BANK8   BANK9  BANK10  BANK1
      +1  BANK12  BANK13  BANK14  BANK15  BANK16  BANK17  BANK18  BANK19  BANK20  BANK21  BANK22  BANK23  BANK24  BANK25
  6229 ;;      Params:         0       0       0       0       0       0       0       0       0       0       0       0       
      +0       0       0       0       0       0       0       0       0       0       0       0       0       0       0
  6230 ;;      Locals:         0       0       0       0       0       0       0       0       0       0       0       0       
      +0       0       0       0       0       0       0       0       0       0       0       0       0       0       0
  6231 ;;      Temps:          0       0       0       0       0       0       0       0       0       0       0       0       
      +0       0       0       0       0       0       0       0       0       0       0       0       0       0       0
  6232 ;;      Totals:         0       0       0       0       0       0       0       0       0       0       0       0       
      +0       0       0       0       0       0       0       0       0       0       0       0       0       0       0
  6233 ;;Total ram usage:        0 bytes
  6234 ;; Hardware stack levels used: 1
  6235 ;; Hardware stack levels required when called: 2
  6236 ;; This function calls:
  6237 ;;		_I2C1_StartSend
  6238 ;; This function is called by:
  6239 ;;		_I2C1_Write
  6240 ;;		_I2C1_WriteRead
  6241 ;; This function uses a non-reentrant model
  6242 ;;
  6243                           
  6244     0461                     _I2C1_WriteStart:	
  6245                           ;psect for function _I2C1_WriteStart
  6246                           
  6247     0461                     l1931:	
  6248                           ;incstack = 0
  6249                           ; Regs used in _I2C1_WriteStart: [wreg+status,2+status,0+pclath+cstack]
  6250                           
  6251                           
  6252                           ;mcc_generated_files/i2c_host/src/mssp1.c: 240:     I2C1_StartSend();
  6253     0461  3184  2497  3184   	fcall	_I2C1_StartSend
  6254     0464                     l1933:
  6255                           
  6256                           ;mcc_generated_files/i2c_host/src/mssp1.c: 241:     i2c1Status.state = I2C_STATE_SEND_WR
      +                          _ADDR;
  6257     0464  3002               	movlw	2
  6258     0465  0021               	movlb	1	; select bank1
  6259     0466  00DC               	movwf	(_i2c1Status^(0+128)+12)	;volatile
  6260     0467                     l154:
  6261     0467  0008               	return
  6262     0468                     __end_of_I2C1_WriteStart:
  6263                           
  6264                           	psect	text21
  6265     0497                     __ptext21:	
  6266 ;; *************** function _I2C1_StartSend *****************
  6267 ;; Defined at:
  6268 ;;		line 425 in file "mcc_generated_files/i2c_host/src/mssp1.c"
  6269 ;; Parameters:    Size  Location     Type
  6270 ;;		None
  6271 ;; Auto vars:     Size  Location     Type
  6272 ;;		None
  6273 ;; Return value:  Size  Location     Type
  6274 ;;                  1    wreg      void 
  6275 ;; Registers used:
  6276 ;;		None
  6277 ;; Tracked objects:
  6278 ;;		On entry : 0/0
  6279 ;;		On exit  : 0/0
  6280 ;;		Unchanged: 0/0
  6281 ;; Data sizes:     COMMON   BANK0   BANK1   BANK2   BANK3   BANK4   BANK5   BANK6   BANK7   BANK8   BANK9  BANK10  BANK1
      +1  BANK12  BANK13  BANK14  BANK15  BANK16  BANK17  BANK18  BANK19  BANK20  BANK21  BANK22  BANK23  BANK24  BANK25
  6282 ;;      Params:         0       0       0       0       0       0       0       0       0       0       0       0       
      +0       0       0       0       0       0       0       0       0       0       0       0       0       0       0
  6283 ;;      Locals:         0       0       0       0       0       0       0       0       0       0       0       0       
      +0       0       0       0       0       0       0       0       0       0       0       0       0       0       0
  6284 ;;      Temps:          0       0       0       0       0       0       0       0       0       0       0       0       
      +0       0       0       0       0       0       0       0       0       0       0       0       0       0       0
  6285 ;;      Totals:         0       0       0       0       0       0       0       0       0       0       0       0       
      +0       0       0       0       0       0       0       0       0       0       0       0       0       0       0
  6286 ;;Total ram usage:        0 bytes
  6287 ;; Hardware stack levels used: 1
  6288 ;; Hardware stack levels required when called: 1
  6289 ;; This function calls:
  6290 ;;		Nothing
  6291 ;; This function is called by:
  6292 ;;		_I2C1_WriteStart
  6293 ;;		_I2C1_ReadStart
  6294 ;; This function uses a non-reentrant model
  6295 ;;
  6296                           
  6297     0497                     _I2C1_StartSend:	
  6298                           ;psect for function _I2C1_StartSend
  6299                           
  6300     0497                     l1903:	
  6301                           ;incstack = 0
  6302                           ; Regs used in _I2C1_StartSend: []
  6303                           
  6304                           
  6305                           ;mcc_generated_files/i2c_host/src/mssp1.c: 427:     SSP1CON2bits.SEN = 1;
  6306     0497  0024               	movlb	4	; select bank4
  6307     0498  1416               	bsf	22,0	;volatile
  6308     0499                     l226:
  6309     0499  0008               	return
  6310     049A                     __end_of_I2C1_StartSend:
  6311                           
  6312                           	psect	text22
  6313     0415                     __ptext22:	
  6314 ;; *************** function _I2C1_IsBusy *****************
  6315 ;; Defined at:
  6316 ;;		line 206 in file "mcc_generated_files/i2c_host/src/mssp1.c"
  6317 ;; Parameters:    Size  Location     Type
  6318 ;;		None
  6319 ;; Auto vars:     Size  Location     Type
  6320 ;;		None
  6321 ;; Return value:  Size  Location     Type
  6322 ;;                  1    wreg      _Bool 
  6323 ;; Registers used:
  6324 ;;		wreg, status,2, status,0
  6325 ;; Tracked objects:
  6326 ;;		On entry : 0/0
  6327 ;;		On exit  : 0/0
  6328 ;;		Unchanged: 0/0
  6329 ;; Data sizes:     COMMON   BANK0   BANK1   BANK2   BANK3   BANK4   BANK5   BANK6   BANK7   BANK8   BANK9  BANK10  BANK1
      +1  BANK12  BANK13  BANK14  BANK15  BANK16  BANK17  BANK18  BANK19  BANK20  BANK21  BANK22  BANK23  BANK24  BANK25
  6330 ;;      Params:         0       0       0       0       0       0       0       0       0       0       0       0       
      +0       0       0       0       0       0       0       0       0       0       0       0       0       0       0
  6331 ;;      Locals:         1       0       0       0       0       0       0       0       0       0       0       0       
      +0       0       0       0       0       0       0       0       0       0       0       0       0       0       0
  6332 ;;      Temps:          0       0       0       0       0       0       0       0       0       0       0       0       
      +0       0       0       0       0       0       0       0       0       0       0       0       0       0       0
  6333 ;;      Totals:         1       0       0       0       0       0       0       0       0       0       0       0       
      +0       0       0       0       0       0       0       0       0       0       0       0       0       0       0
  6334 ;;Total ram usage:        1 bytes
  6335 ;; Hardware stack levels used: 1
  6336 ;; Hardware stack levels required when called: 1
  6337 ;; This function calls:
  6338 ;;		Nothing
  6339 ;; This function is called by:
  6340 ;;		_I2C1_Write
  6341 ;;		_I2C1_Read
  6342 ;;		_I2C1_WriteRead
  6343 ;;		_main
  6344 ;; This function uses a non-reentrant model
  6345 ;;
  6346                           
  6347     0415                     _I2C1_IsBusy:	
  6348                           ;psect for function _I2C1_IsBusy
  6349                           
  6350     0415                     l1919:	
  6351                           ;incstack = 0
  6352                           ; Regs used in _I2C1_IsBusy: [wreg+status,2+status,0]
  6353                           
  6354                           
  6355                           ;mcc_generated_files/i2c_host/src/mssp1.c: 208:     return i2c1Status.busy || SSP1STATbi
      +                          ts.S;
  6356     0415  01F0               	clrf	_I2C1_IsBusy$483
  6357     0416  0AF0               	incf	_I2C1_IsBusy$483,f
  6358     0417                     l1921:
  6359     0417  0021               	movlb	1	; select bank1
  6360     0418  0850               	movf	_i2c1Status^(0+128),w	;volatile
  6361     0419  1D03               	btfss	3,2
  6362     041A  2C1C               	goto	u571
  6363     041B  2C1D               	goto	u570
  6364     041C                     u571:
  6365     041C  2C23               	goto	l1927
  6366     041D                     u570:
  6367     041D                     l1923:
  6368     041D  0024               	movlb	4	; select bank4
  6369     041E  1994               	btfsc	20,3	;volatile
  6370     041F  2C21               	goto	u581
  6371     0420  2C22               	goto	u580
  6372     0421                     u581:
  6373     0421  2C23               	goto	l1927
  6374     0422                     u580:
  6375     0422                     l1925:
  6376     0422  01F0               	clrf	_I2C1_IsBusy$483
  6377     0423                     l1927:
  6378     0423  0870               	movf	_I2C1_IsBusy$483,w
  6379     0424                     l138:
  6380     0424  0008               	return
  6381     0425                     __end_of_I2C1_IsBusy:
  6382                           
  6383                           	psect	intentry
  6384     0004                     __pintentry:	
  6385 ;; *************** function _ISR *****************
  6386 ;; Defined at:
  6387 ;;		line 220 in file "main.c"
  6388 ;; Parameters:    Size  Location     Type
  6389 ;;		None
  6390 ;; Auto vars:     Size  Location     Type
  6391 ;;		None
  6392 ;; Return value:  Size  Location     Type
  6393 ;;                  1    wreg      void 
  6394 ;; Registers used:
  6395 ;;		None
  6396 ;; Tracked objects:
  6397 ;;		On entry : 0/0
  6398 ;;		On exit  : 0/0
  6399 ;;		Unchanged: 0/0
  6400 ;; Data sizes:     COMMON   BANK0   BANK1   BANK2   BANK3   BANK4   BANK5   BANK6   BANK7   BANK8   BANK9  BANK10  BANK1
      +1  BANK12  BANK13  BANK14  BANK15  BANK16  BANK17  BANK18  BANK19  BANK20  BANK21  BANK22  BANK23  BANK24  BANK25
  6401 ;;      Params:         0       0       0       0       0       0       0       0       0       0       0       0       
      +0       0       0       0       0       0       0       0       0       0       0       0       0       0       0
  6402 ;;      Locals:         0       0       0       0       0       0       0       0       0       0       0       0       
      +0       0       0       0       0       0       0       0       0       0       0       0       0       0       0
  6403 ;;      Temps:          0       0       0       0       0       0       0       0       0       0       0       0       
      +0       0       0       0       0       0       0       0       0       0       0       0       0       0       0
  6404 ;;      Totals:         0       0       0       0       0       0       0       0       0       0       0       0       
      +0       0       0       0       0       0       0       0       0       0       0       0       0       0       0
  6405 ;;Total ram usage:        0 bytes
  6406 ;; Hardware stack levels used: 1
  6407 ;; This function calls:
  6408 ;;		Nothing
  6409 ;; This function is called by:
  6410 ;;		Interrupt level 1
  6411 ;; This function uses a non-reentrant model
  6412 ;;
  6413                           
  6414     0004                     _ISR:
  6415                           
  6416                           ;incstack = 0
  6417     0004  147E               	bsf	int$flags,0	;set compiler interrupt flag (level 1)
  6418                           
  6419                           ; Regs used in _ISR: []
  6420     0005  3180               	pagesel	$
  6421     0006                     i1l1835:
  6422                           
  6423                           ;main.c: 221:     if(PIR0bits.IOCIF){
  6424     0006  0020               	movlb	0	; select bank0
  6425     0007  1E10               	btfss	16,4	;volatile
  6426     0008  280A               	goto	u25_21
  6427     0009  280B               	goto	u25_20
  6428     000A                     u25_21:
  6429     000A  28C2               	goto	i1l579
  6430     000B                     u25_20:
  6431     000B                     i1l1837:
  6432                           
  6433                           ;main.c: 222:         if(IOCAPbits.IOCAP0){
  6434     000B  0027               	movlb	7	; select bank7
  6435     000C  1C11               	btfss	17,0	;volatile
  6436     000D  280F               	goto	u26_21
  6437     000E  2810               	goto	u26_20
  6438     000F                     u26_21:
  6439     000F  2812               	goto	i1l580
  6440     0010                     u26_20:
  6441     0010                     i1l1839:
  6442                           
  6443                           ;main.c: 223:             PIR0bits.IOCIF = 0;
  6444     0010  0020               	movlb	0	; select bank0
  6445     0011  1210               	bcf	16,4	;volatile
  6446     0012                     i1l580:	
  6447                           ;main.c: 224:         }
  6448                           
  6449                           
  6450                           ;main.c: 225:         if(IOCAPbits.IOCAP1){
  6451     0012  0027               	movlb	7	; select bank7
  6452     0013  1C91               	btfss	17,1	;volatile
  6453     0014  2816               	goto	u27_21
  6454     0015  2817               	goto	u27_20
  6455     0016                     u27_21:
  6456     0016  2819               	goto	i1l581
  6457     0017                     u27_20:
  6458     0017                     i1l1841:
  6459                           
  6460                           ;main.c: 226:             PIR0bits.IOCIF = 0;
  6461     0017  0020               	movlb	0	; select bank0
  6462     0018  1210               	bcf	16,4	;volatile
  6463     0019                     i1l581:	
  6464                           ;main.c: 227:         }
  6465                           
  6466                           
  6467                           ;main.c: 228:         if(IOCAPbits.IOCAP2){
  6468     0019  0027               	movlb	7	; select bank7
  6469     001A  1D11               	btfss	17,2	;volatile
  6470     001B  281D               	goto	u28_21
  6471     001C  281E               	goto	u28_20
  6472     001D                     u28_21:
  6473     001D  2820               	goto	i1l582
  6474     001E                     u28_20:
  6475     001E                     i1l1843:
  6476                           
  6477                           ;main.c: 229:             PIR0bits.IOCIF = 0;
  6478     001E  0020               	movlb	0	; select bank0
  6479     001F  1210               	bcf	16,4	;volatile
  6480     0020                     i1l582:	
  6481                           ;main.c: 230:         }
  6482                           
  6483                           
  6484                           ;main.c: 232:         if(PORTAbits.RA0 == 1){
  6485     0020  0020               	movlb	0	; select bank0
  6486     0021  1C0C               	btfss	12,0	;volatile
  6487     0022  2824               	goto	u29_21
  6488     0023  2825               	goto	u29_20
  6489     0024                     u29_21:
  6490     0024  286F               	goto	i1l583
  6491     0025                     u29_20:
  6492     0025                     i1l1845:
  6493                           
  6494                           ;main.c: 234:             if(PORTCbits.RC4 == 1 && PORTCbits.RC6 == 1){
  6495     0025  1E0E               	btfss	14,4	;volatile
  6496     0026  2828               	goto	u30_21
  6497     0027  2829               	goto	u30_20
  6498     0028                     u30_21:
  6499     0028  283B               	goto	i1l584
  6500     0029                     u30_20:
  6501     0029                     i1l1847:
  6502     0029  1F0E               	btfss	14,6	;volatile
  6503     002A  282C               	goto	u31_21
  6504     002B  282D               	goto	u31_20
  6505     002C                     u31_21:
  6506     002C  283B               	goto	i1l584
  6507     002D                     u31_20:
  6508     002D                     i1l1849:
  6509                           
  6510                           ;main.c: 235:                 if(IOCBPbits.IOCBP5){
  6511     002D  0027               	movlb	7	; select bank7
  6512     002E  1E94               	btfss	20,5	;volatile
  6513     002F  2831               	goto	u32_21
  6514     0030  2832               	goto	u32_20
  6515     0031                     u32_21:
  6516     0031  2834               	goto	i1l585
  6517     0032                     u32_20:
  6518     0032                     i1l1851:
  6519                           
  6520                           ;main.c: 236:                     PIR0bits.IOCIF = 0;
  6521     0032  0020               	movlb	0	; select bank0
  6522     0033  1210               	bcf	16,4	;volatile
  6523     0034                     i1l585:	
  6524                           ;main.c: 237:                 }
  6525                           
  6526                           
  6527                           ;main.c: 238:                 if(IOCBPbits.IOCBP7){
  6528     0034  0027               	movlb	7	; select bank7
  6529     0035  1F94               	btfss	20,7	;volatile
  6530     0036  2838               	goto	u33_21
  6531     0037  2839               	goto	u33_20
  6532     0038                     u33_21:
  6533     0038  283B               	goto	i1l584
  6534     0039                     u33_20:
  6535     0039                     i1l1853:
  6536                           
  6537                           ;main.c: 239:                     PIR0bits.IOCIF = 0;
  6538     0039  0020               	movlb	0	; select bank0
  6539     003A  1210               	bcf	16,4	;volatile
  6540     003B                     i1l584:	
  6541                           ;main.c: 241:             }
  6542                           
  6543                           
  6544                           ;main.c: 242:             if(PORTCbits.RC4 == 1){
  6545     003B  0020               	movlb	0	; select bank0
  6546     003C  1E0E               	btfss	14,4	;volatile
  6547     003D  283F               	goto	u34_21
  6548     003E  2840               	goto	u34_20
  6549     003F                     u34_21:
  6550     003F  284E               	goto	i1l587
  6551     0040                     u34_20:
  6552     0040                     i1l1855:
  6553                           
  6554                           ;main.c: 243:                 if(IOCBPbits.IOCBP5){
  6555     0040  0027               	movlb	7	; select bank7
  6556     0041  1E94               	btfss	20,5	;volatile
  6557     0042  2844               	goto	u35_21
  6558     0043  2845               	goto	u35_20
  6559     0044                     u35_21:
  6560     0044  2847               	goto	i1l588
  6561     0045                     u35_20:
  6562     0045                     i1l1857:
  6563                           
  6564                           ;main.c: 244:                     PIR0bits.IOCIF = 0;
  6565     0045  0020               	movlb	0	; select bank0
  6566     0046  1210               	bcf	16,4	;volatile
  6567     0047                     i1l588:	
  6568                           ;main.c: 245:                 }
  6569                           
  6570                           
  6571                           ;main.c: 246:                 if(IOCBPbits.IOCBP7){
  6572     0047  0027               	movlb	7	; select bank7
  6573     0048  1F94               	btfss	20,7	;volatile
  6574     0049  284B               	goto	u36_21
  6575     004A  284C               	goto	u36_20
  6576     004B                     u36_21:
  6577     004B  284E               	goto	i1l587
  6578     004C                     u36_20:
  6579     004C                     i1l1859:
  6580                           
  6581                           ;main.c: 247:                     PIR0bits.IOCIF = 0;
  6582     004C  0020               	movlb	0	; select bank0
  6583     004D  1210               	bcf	16,4	;volatile
  6584     004E                     i1l587:	
  6585                           ;main.c: 249:             }
  6586                           
  6587                           
  6588                           ;main.c: 250:             if(PORTCbits.RC6 == 1){
  6589     004E  0020               	movlb	0	; select bank0
  6590     004F  1F0E               	btfss	14,6	;volatile
  6591     0050  2852               	goto	u37_21
  6592     0051  2853               	goto	u37_20
  6593     0052                     u37_21:
  6594     0052  2861               	goto	i1l590
  6595     0053                     u37_20:
  6596     0053                     i1l1861:
  6597                           
  6598                           ;main.c: 251:                 if(IOCBPbits.IOCBP5){
  6599     0053  0027               	movlb	7	; select bank7
  6600     0054  1E94               	btfss	20,5	;volatile
  6601     0055  2857               	goto	u38_21
  6602     0056  2858               	goto	u38_20
  6603     0057                     u38_21:
  6604     0057  285A               	goto	i1l591
  6605     0058                     u38_20:
  6606     0058                     i1l1863:
  6607                           
  6608                           ;main.c: 253:                     PIR0bits.IOCIF = 0;
  6609     0058  0020               	movlb	0	; select bank0
  6610     0059  1210               	bcf	16,4	;volatile
  6611     005A                     i1l591:	
  6612                           ;main.c: 254:                 }
  6613                           
  6614                           
  6615                           ;main.c: 255:                 if(IOCBPbits.IOCBP7){
  6616     005A  0027               	movlb	7	; select bank7
  6617     005B  1F94               	btfss	20,7	;volatile
  6618     005C  285E               	goto	u39_21
  6619     005D  285F               	goto	u39_20
  6620     005E                     u39_21:
  6621     005E  2861               	goto	i1l590
  6622     005F                     u39_20:
  6623     005F                     i1l1865:
  6624                           
  6625                           ;main.c: 257:                     PIR0bits.IOCIF = 0;
  6626     005F  0020               	movlb	0	; select bank0
  6627     0060  1210               	bcf	16,4	;volatile
  6628     0061                     i1l590:	
  6629                           ;main.c: 259:             }
  6630                           
  6631                           
  6632                           ;main.c: 261:             if(IOCBPbits.IOCBP5){
  6633     0061  0027               	movlb	7	; select bank7
  6634     0062  1E94               	btfss	20,5	;volatile
  6635     0063  2865               	goto	u40_21
  6636     0064  2866               	goto	u40_20
  6637     0065                     u40_21:
  6638     0065  2868               	goto	i1l593
  6639     0066                     u40_20:
  6640     0066                     i1l1867:
  6641                           
  6642                           ;main.c: 262:                 PIR0bits.IOCIF = 0;
  6643     0066  0020               	movlb	0	; select bank0
  6644     0067  1210               	bcf	16,4	;volatile
  6645     0068                     i1l593:	
  6646                           ;main.c: 263:             }
  6647                           
  6648                           
  6649                           ;main.c: 264:             if(IOCBPbits.IOCBP7){
  6650     0068  0027               	movlb	7	; select bank7
  6651     0069  1F94               	btfss	20,7	;volatile
  6652     006A  286C               	goto	u41_21
  6653     006B  286D               	goto	u41_20
  6654     006C                     u41_21:
  6655     006C  286F               	goto	i1l583
  6656     006D                     u41_20:
  6657     006D                     i1l1869:
  6658                           
  6659                           ;main.c: 265:                 PIR0bits.IOCIF = 0;
  6660     006D  0020               	movlb	0	; select bank0
  6661     006E  1210               	bcf	16,4	;volatile
  6662     006F                     i1l583:	
  6663                           ;main.c: 267:         }
  6664                           
  6665                           
  6666                           ;main.c: 269:         if(PORTAbits.RA1 == 1 || PORTAbits.RA2 == 1){
  6667     006F  0020               	movlb	0	; select bank0
  6668     0070  188C               	btfsc	12,1	;volatile
  6669     0071  2873               	goto	u42_21
  6670     0072  2874               	goto	u42_20
  6671     0073                     u42_21:
  6672     0073  2878               	goto	i1l597
  6673     0074                     u42_20:
  6674     0074                     i1l1871:
  6675     0074  1D0C               	btfss	12,2	;volatile
  6676     0075  2877               	goto	u43_21
  6677     0076  2878               	goto	u43_20
  6678     0077                     u43_21:
  6679     0077  28C2               	goto	i1l579
  6680     0078                     u43_20:
  6681     0078                     i1l597:
  6682                           
  6683                           ;main.c: 270:             if(PORTCbits.RC4 == 1 && PORTCbits.RC6 == 1){
  6684     0078  1E0E               	btfss	14,4	;volatile
  6685     0079  287B               	goto	u44_21
  6686     007A  287C               	goto	u44_20
  6687     007B                     u44_21:
  6688     007B  288E               	goto	i1l598
  6689     007C                     u44_20:
  6690     007C                     i1l1873:
  6691     007C  1F0E               	btfss	14,6	;volatile
  6692     007D  287F               	goto	u45_21
  6693     007E  2880               	goto	u45_20
  6694     007F                     u45_21:
  6695     007F  288E               	goto	i1l598
  6696     0080                     u45_20:
  6697     0080                     i1l1875:
  6698                           
  6699                           ;main.c: 271:                 if(IOCBPbits.IOCBP5){
  6700     0080  0027               	movlb	7	; select bank7
  6701     0081  1E94               	btfss	20,5	;volatile
  6702     0082  2884               	goto	u46_21
  6703     0083  2885               	goto	u46_20
  6704     0084                     u46_21:
  6705     0084  2887               	goto	i1l599
  6706     0085                     u46_20:
  6707     0085                     i1l1877:
  6708                           
  6709                           ;main.c: 272:                     PIR0bits.IOCIF = 0;
  6710     0085  0020               	movlb	0	; select bank0
  6711     0086  1210               	bcf	16,4	;volatile
  6712     0087                     i1l599:	
  6713                           ;main.c: 273:                 }
  6714                           
  6715                           
  6716                           ;main.c: 274:                 if(IOCBPbits.IOCBP7){
  6717     0087  0027               	movlb	7	; select bank7
  6718     0088  1F94               	btfss	20,7	;volatile
  6719     0089  288B               	goto	u47_21
  6720     008A  288C               	goto	u47_20
  6721     008B                     u47_21:
  6722     008B  288E               	goto	i1l598
  6723     008C                     u47_20:
  6724     008C                     i1l1879:
  6725                           
  6726                           ;main.c: 275:                     PIR0bits.IOCIF = 0;
  6727     008C  0020               	movlb	0	; select bank0
  6728     008D  1210               	bcf	16,4	;volatile
  6729     008E                     i1l598:	
  6730                           ;main.c: 278:             }
  6731                           
  6732                           
  6733                           ;main.c: 279:             if(PORTCbits.RC4 == 1){
  6734     008E  0020               	movlb	0	; select bank0
  6735     008F  1E0E               	btfss	14,4	;volatile
  6736     0090  2892               	goto	u48_21
  6737     0091  2893               	goto	u48_20
  6738     0092                     u48_21:
  6739     0092  28A1               	goto	i1l601
  6740     0093                     u48_20:
  6741     0093                     i1l1881:
  6742                           
  6743                           ;main.c: 280:                 if(IOCBPbits.IOCBP5){
  6744     0093  0027               	movlb	7	; select bank7
  6745     0094  1E94               	btfss	20,5	;volatile
  6746     0095  2897               	goto	u49_21
  6747     0096  2898               	goto	u49_20
  6748     0097                     u49_21:
  6749     0097  289A               	goto	i1l602
  6750     0098                     u49_20:
  6751     0098                     i1l1883:
  6752                           
  6753                           ;main.c: 281:                     PIR0bits.IOCIF = 0;
  6754     0098  0020               	movlb	0	; select bank0
  6755     0099  1210               	bcf	16,4	;volatile
  6756     009A                     i1l602:	
  6757                           ;main.c: 282:                 }
  6758                           
  6759                           
  6760                           ;main.c: 283:                 if(IOCBPbits.IOCBP7){
  6761     009A  0027               	movlb	7	; select bank7
  6762     009B  1F94               	btfss	20,7	;volatile
  6763     009C  289E               	goto	u50_21
  6764     009D  289F               	goto	u50_20
  6765     009E                     u50_21:
  6766     009E  28A1               	goto	i1l601
  6767     009F                     u50_20:
  6768     009F                     i1l1885:
  6769                           
  6770                           ;main.c: 284:                     PIR0bits.IOCIF = 0;
  6771     009F  0020               	movlb	0	; select bank0
  6772     00A0  1210               	bcf	16,4	;volatile
  6773     00A1                     i1l601:	
  6774                           ;main.c: 286:             }
  6775                           
  6776                           
  6777                           ;main.c: 287:             if(PORTCbits.RC6 == 1){
  6778     00A1  0020               	movlb	0	; select bank0
  6779     00A2  1F0E               	btfss	14,6	;volatile
  6780     00A3  28A5               	goto	u51_21
  6781     00A4  28A6               	goto	u51_20
  6782     00A5                     u51_21:
  6783     00A5  28B4               	goto	i1l604
  6784     00A6                     u51_20:
  6785     00A6                     i1l1887:
  6786                           
  6787                           ;main.c: 288:                 if(IOCBPbits.IOCBP5){
  6788     00A6  0027               	movlb	7	; select bank7
  6789     00A7  1E94               	btfss	20,5	;volatile
  6790     00A8  28AA               	goto	u52_21
  6791     00A9  28AB               	goto	u52_20
  6792     00AA                     u52_21:
  6793     00AA  28AD               	goto	i1l605
  6794     00AB                     u52_20:
  6795     00AB                     i1l1889:
  6796                           
  6797                           ;main.c: 289:                     PIR0bits.IOCIF = 0;
  6798     00AB  0020               	movlb	0	; select bank0
  6799     00AC  1210               	bcf	16,4	;volatile
  6800     00AD                     i1l605:	
  6801                           ;main.c: 290:                 }
  6802                           
  6803                           
  6804                           ;main.c: 291:                 if(IOCBPbits.IOCBP7){
  6805     00AD  0027               	movlb	7	; select bank7
  6806     00AE  1F94               	btfss	20,7	;volatile
  6807     00AF  28B1               	goto	u53_21
  6808     00B0  28B2               	goto	u53_20
  6809     00B1                     u53_21:
  6810     00B1  28B4               	goto	i1l604
  6811     00B2                     u53_20:
  6812     00B2                     i1l1891:
  6813                           
  6814                           ;main.c: 292:                     PIR0bits.IOCIF = 0;
  6815     00B2  0020               	movlb	0	; select bank0
  6816     00B3  1210               	bcf	16,4	;volatile
  6817     00B4                     i1l604:	
  6818                           ;main.c: 294:             }
  6819                           
  6820                           
  6821                           ;main.c: 296:             if(IOCBPbits.IOCBP5){
  6822     00B4  0027               	movlb	7	; select bank7
  6823     00B5  1E94               	btfss	20,5	;volatile
  6824     00B6  28B8               	goto	u54_21
  6825     00B7  28B9               	goto	u54_20
  6826     00B8                     u54_21:
  6827     00B8  28BB               	goto	i1l607
  6828     00B9                     u54_20:
  6829     00B9                     i1l1893:
  6830                           
  6831                           ;main.c: 297:                 PIR0bits.IOCIF = 0;
  6832     00B9  0020               	movlb	0	; select bank0
  6833     00BA  1210               	bcf	16,4	;volatile
  6834     00BB                     i1l607:	
  6835                           ;main.c: 298:             }
  6836                           
  6837                           
  6838                           ;main.c: 299:             if(IOCBPbits.IOCBP7){
  6839     00BB  0027               	movlb	7	; select bank7
  6840     00BC  1F94               	btfss	20,7	;volatile
  6841     00BD  28BF               	goto	u55_21
  6842     00BE  28C0               	goto	u55_20
  6843     00BF                     u55_21:
  6844     00BF  28C2               	goto	i1l579
  6845     00C0                     u55_20:
  6846     00C0                     i1l1895:
  6847                           
  6848                           ;main.c: 300:                 PIR0bits.IOCIF = 0;
  6849     00C0  0020               	movlb	0	; select bank0
  6850     00C1  1210               	bcf	16,4	;volatile
  6851     00C2                     i1l579:	
  6852                           ;main.c: 303:     }
  6853                           
  6854                           
  6855                           ;main.c: 306:     PIR0bits.IOCIF = 0;
  6856     00C2  0020               	movlb	0	; select bank0
  6857     00C3  1210               	bcf	16,4	;volatile
  6858     00C4                     i1l609:
  6859     00C4  107E               	bcf	int$flags,0	;clear compiler interrupt flag (level 1)
  6860     00C5  0009               	retfie
  6861     00C6                     __end_of_ISR:
  6862     007E                     btemp	set	126	;btemp
  6863     007E                     int$flags	set	126
  6864     007E                     wtemp0	set	126
  6865                           
  6866                           	psect	config
  6867                           
  6868                           ;Config register CONFIG1 @ 0x8007
  6869                           ;	FEXTOSC External Oscillator mode Selection bits
  6870                           ;	FEXTOSC = ECH, EC (external clock) above 8 MHz
  6871                           ;	Power-up default value for COSC bits
  6872                           ;	RSTOSC = HFINT32, HFINTOSC with 2x PLL (32MHz)
  6873                           ;	Clock Out Enable bit
  6874                           ;	CLKOUTEN = ON, CLKOUT function is enabled; FOSC/4 clock appears at OSC2
  6875                           ;	Clock Switch Enable bit
  6876                           ;	CSWEN = ON, Writing to NOSC and NDIV is allowed
  6877                           ;	Fail-Safe Clock Monitor Enable
  6878                           ;	FCMEN = ON, Fail-Safe Clock Monitor is enabled
  6879     8007                     	org	32775
  6880     8007  3E8F               	dw	16015
  6881                           
  6882                           ;Config register CONFIG2 @ 0x8008
  6883                           ;	Master Clear Enable bit
  6884                           ;	MCLRE = ON, MCLR/VPP pin function is MCLR; Weak pull-up enabled
  6885                           ;	Power-up Timer Enable bit
  6886                           ;	PWRTE = OFF, PWRT disabled
  6887                           ;	Watchdog Timer Enable bits
  6888                           ;	WDTE = OFF, WDT disabled; SWDTEN is ignored
  6889                           ;	Low-power BOR enable bit
  6890                           ;	LPBOREN = OFF, ULPBOR disabled
  6891                           ;	Brown-out Reset Enable bits
  6892                           ;	BOREN = ON, Brown-out Reset enabled, SBOREN bit ignored
  6893                           ;	Brown-out Reset Voltage selection bit
  6894                           ;	BORV = LOW, Brown-out voltage (Vbor) set to 2.45V
  6895                           ;	PPSLOCK bit One-Way Set Enable bit
  6896                           ;	PPS1WAY = ON, The PPSLOCK bit can be cleared and set only once; PPS registers remain l
      +                          ocked after one clear/set cycle
  6897                           ;	Stack Overflow/Underflow Reset Enable bit
  6898                           ;	STVREN = ON, Stack Overflow or Underflow will cause a Reset
  6899                           ;	Debugger enable bit
  6900                           ;	DEBUG = 0x1, unprogrammed default
  6901     8008                     	org	32776
  6902     8008  3FF3               	dw	16371
  6903                           
  6904                           ;Config register CONFIG3 @ 0x8009
  6905                           ;	User NVM self-write protection bits
  6906                           ;	WRT = OFF, Write protection off
  6907                           ;	Low Voltage Programming Enable bit
  6908                           ;	LVP = ON, Low Voltage programming enabled. MCLR/VPP pin function is MCLR. MCLRE config
      +                          uration bit is ignored.
  6909     8009                     	org	32777
  6910     8009  3FFF               	dw	16383
  6911                           
  6912                           ;Config register CONFIG4 @ 0x800A
  6913                           ;	User NVM Program Memory Code Protection bit
  6914                           ;	CP = OFF, User NVM code protection disabled
  6915                           ;	Data NVM Memory Code Protection bit
  6916                           ;	CPD = OFF, Data NVM code protection disabled
  6917     800A                     	org	32778
  6918     800A  3FFF               	dw	16383

Data Sizes:
    Strings     0
    Constant    42
    Data        73
    BSS         19
    Persistent  32
    Stack       0

Auto Spaces:
    Space          Size  Autos    Used
    COMMON           14      9      13
    BANK0            80     74      76
    BANK1            80      0      61
    BANK2            80      0      24
    BANK3            80      0       0
    BANK4            80      0       0
    BANK5            80      0       0
    BANK6            80      0       0
    BANK7            80      0       0
    BANK8            80      0       0
    BANK9            80      0       0
    BANK10           80      0       0
    BANK11           80      0       0
    BANK12           80      0       0
    BANK13           80      0       0
    BANK14           80      0       0
    BANK15           80      0       0
    BANK16           80      0       0
    BANK17           80      0       0
    BANK18           80      0       0
    BANK19           80      0       0
    BANK20           80      0       0
    BANK21           80      0       0
    BANK22           80      0       0
    BANK23           80      0       0
    BANK24           80      0       0
    BANK25           32      0       0

Pointer List with Targets:

    I2C1_Callback	PTR FTN()void  size(2) Largest target is 1
		 -> I2C1_DefaultCallback(), NULL(), 

    I2C1_CallbackRegister@callbackHandler	PTR FTN()void  size(2) Largest target is 1
		 -> I2C1_DefaultCallback(), 

    i2c1_eventTable	const PTR FTN()enum E6998[9] size(2) Largest target is 1
		 -> I2C1_EVENT_ERROR(), I2C1_EVENT_IDLE(), I2C1_EVENT_NACK(), I2C1_EVENT_RESET(), 
		 -> I2C1_EVENT_RX(), I2C1_EVENT_SEND_RD_ADDR(), I2C1_EVENT_SEND_WR_ADDR(), I2C1_EVENT_STOP(), 
		 -> I2C1_EVENT_TX(), 

    I2C1_Host$CallbackRegister	PTR FTN(PTR FTN()void ,)void  size(2) Largest target is 1
		 -> I2C1_CallbackRegister(), 

    I2C1_Host$Deinitialize	PTR FTN()void  size(2) Largest target is 1
		 -> I2C1_Deinitialize(), 

    I2C1_Host$ErrorGet	PTR FTN()enum E6989 size(2) Largest target is 1
		 -> I2C1_ErrorGet(), 

    I2C1_Host$Initialize	PTR FTN()void  size(2) Largest target is 1
		 -> I2C1_Initialize(), 

    I2C1_Host$IsBusy	PTR FTN()_Bool  size(2) Largest target is 1
		 -> I2C1_IsBusy(), 

    I2C1_Host$Read	PTR FTN(unsigned short ,PTR unsigned char ,unsigned int ,)_Bool  size(2) Largest target is 1
		 -> I2C1_Read(), 

    I2C1_Host$Tasks	PTR FTN()void  size(2) Largest target is 1
		 -> NULL(), 

    I2C1_Host$TransferSetup	PTR FTN(PTR struct .,unsigned long ,)_Bool  size(2) Largest target is 1
		 -> NULL(), 

    I2C1_Host$Write	PTR FTN(unsigned short ,PTR unsigned char ,unsigned int ,)_Bool  size(2) Largest target is 1
		 -> I2C1_Write(), 

    I2C1_Host$WriteRead	PTR FTN(unsigned short ,PTR unsigned char ,unsigned int ,PTR unsigned char ,unsigned int ,)_Bool  size(2) Largest target is 1
		 -> I2C1_WriteRead(), 

    I2C1_Write@data	PTR unsigned char  size(1) Largest target is 2
		 -> main@dataWrite(BANK0[2]), 

    i2c1Status$readPtr	PTR unsigned char  size(2) Largest target is 0
		 -> NULL(NULL[0]), 

    i2c1Status$writePtr	PTR unsigned char  size(1) Largest target is 2
		 -> main@dataWrite(BANK0[2]), NULL(NULL[0]), 

    main@I2C	PTR const struct . size(2) Largest target is 20
		 -> I2C1_Host(CODE[20]), 

    main@I2C$CallbackRegister	PTR FTN(PTR FTN()void ,)void  size(2) Largest target is 1
		 -> I2C1_CallbackRegister(), 

    main@I2C$Deinitialize	PTR FTN()void  size(2) Largest target is 1
		 -> I2C1_Deinitialize(), 

    main@I2C$ErrorGet	PTR FTN()enum E6989 size(2) Largest target is 1
		 -> I2C1_ErrorGet(), 

    main@I2C$Initialize	PTR FTN()void  size(2) Largest target is 1
		 -> I2C1_Initialize(), 

    main@I2C$IsBusy	PTR FTN()_Bool  size(2) Largest target is 1
		 -> I2C1_IsBusy(), 

    main@I2C$Read	PTR FTN(unsigned short ,PTR unsigned char ,unsigned int ,)_Bool  size(2) Largest target is 1
		 -> I2C1_Read(), 

    main@I2C$Tasks	PTR FTN()void  size(2) Largest target is 1
		 -> NULL(), 

    main@I2C$TransferSetup	PTR FTN(PTR struct .,unsigned long ,)_Bool  size(2) Largest target is 1
		 -> NULL(), 

    main@I2C$Write	PTR FTN(unsigned short ,PTR unsigned char ,unsigned int ,)_Bool  size(2) Largest target is 1
		 -> I2C1_Write(), 

    main@I2C$WriteRead	PTR FTN(unsigned short ,PTR unsigned char ,unsigned int ,PTR unsigned char ,unsigned int ,)_Bool  size(2) Largest target is 1
		 -> I2C1_WriteRead(), 

    NULL$0	PTR struct . size(2) Largest target is 0

    S139$readPtr	PTR unsigned char  size(2) Largest target is 0
		 -> NULL(NULL[0]), 

    S139$writePtr	PTR unsigned char  size(1) Largest target is 2
		 -> main@dataWrite(BANK0[2]), NULL(NULL[0]), 

    S40$2$1	PTR unsigned char  size(1) Largest target is 2
		 -> main@dataWrite(BANK0[2]), 

    S40$3$1	PTR unsigned char  size(2) Largest target is 0

    S40$4$1	PTR unsigned char  size(2) Largest target is 0

    S40$4$3	PTR unsigned char  size(2) Largest target is 0

    S40$8$0	PTR FTN()void  size(2) Largest target is 1
		 -> I2C1_DefaultCallback(), 

    S40$CallbackRegister	PTR FTN(PTR FTN()void ,)void  size(2) Largest target is 1
		 -> I2C1_CallbackRegister(), 

    S40$Deinitialize	PTR FTN()void  size(2) Largest target is 1
		 -> I2C1_Deinitialize(), 

    S40$ErrorGet	PTR FTN()enum E6989 size(2) Largest target is 1
		 -> I2C1_ErrorGet(), 

    S40$Initialize	PTR FTN()void  size(2) Largest target is 1
		 -> I2C1_Initialize(), 

    S40$IsBusy	PTR FTN()_Bool  size(2) Largest target is 1
		 -> I2C1_IsBusy(), 

    S40$Read	PTR FTN(unsigned short ,PTR unsigned char ,unsigned int ,)_Bool  size(2) Largest target is 1
		 -> I2C1_Read(), 

    S40$Tasks	PTR FTN()void  size(2) Largest target is 1
		 -> NULL(), 

    S40$TransferSetup	PTR FTN(PTR struct .,unsigned long ,)_Bool  size(2) Largest target is 1
		 -> NULL(), 

    S40$Write	PTR FTN(unsigned short ,PTR unsigned char ,unsigned int ,)_Bool  size(2) Largest target is 1
		 -> I2C1_Write(), 

    S40$WriteRead	PTR FTN(unsigned short ,PTR unsigned char ,unsigned int ,PTR unsigned char ,unsigned int ,)_Bool  size(2) Largest target is 1
		 -> I2C1_WriteRead(), 

    TMR2_OverflowCallback	PTR FTN()void  size(2) Largest target is 1
		 -> TMR2_DefaultOverflowCallback(), NULL(), 

    TMR2_OverflowCallbackRegister@InterruptHandler	PTR FTN()void  size(2) Largest target is 1
		 -> TMR2_DefaultOverflowCallback(), 

    TMR4_OverflowCallback	PTR FTN()void  size(2) Largest target is 1
		 -> TMR4_DefaultOverflowCallback(), NULL(), 

    TMR4_OverflowCallbackRegister@InterruptHandler	PTR FTN()void  size(2) Largest target is 1
		 -> TMR4_DefaultOverflowCallback(), 


Critical Paths under _main in COMMON

    _main->_I2C1_Write
    _TMR4_Initialize->_TMR4_OverflowCallbackRegister
    _TMR2_Initialize->_TMR2_OverflowCallbackRegister
    _I2C1_Initialize->_I2C1_CallbackRegister
    _I2C1_Write->_I2C1_IsBusy

Critical Paths under _ISR in COMMON

    None.

Critical Paths under _main in BANK0

    None.

Critical Paths under _ISR in BANK0

    None.

Critical Paths under _main in BANK1

    None.

Critical Paths under _ISR in BANK1

    None.

Critical Paths under _main in BANK2

    None.

Critical Paths under _ISR in BANK2

    None.

Critical Paths under _main in BANK3

    None.

Critical Paths under _ISR in BANK3

    None.

Critical Paths under _main in BANK4

    None.

Critical Paths under _ISR in BANK4

    None.

Critical Paths under _main in BANK5

    None.

Critical Paths under _ISR in BANK5

    None.

Critical Paths under _main in BANK6

    None.

Critical Paths under _ISR in BANK6

    None.

Critical Paths under _main in BANK7

    None.

Critical Paths under _ISR in BANK7

    None.

Critical Paths under _main in BANK8

    None.

Critical Paths under _ISR in BANK8

    None.

Critical Paths under _main in BANK9

    None.

Critical Paths under _ISR in BANK9

    None.

Critical Paths under _main in BANK10

    None.

Critical Paths under _ISR in BANK10

    None.

Critical Paths under _main in BANK11

    None.

Critical Paths under _ISR in BANK11

    None.

Critical Paths under _main in BANK12

    None.

Critical Paths under _ISR in BANK12

    None.

Critical Paths under _main in BANK13

    None.

Critical Paths under _ISR in BANK13

    None.

Critical Paths under _main in BANK14

    None.

Critical Paths under _ISR in BANK14

    None.

Critical Paths under _main in BANK15

    None.

Critical Paths under _ISR in BANK15

    None.

Critical Paths under _main in BANK16

    None.

Critical Paths under _ISR in BANK16

    None.

Critical Paths under _main in BANK17

    None.

Critical Paths under _ISR in BANK17

    None.

Critical Paths under _main in BANK18

    None.

Critical Paths under _ISR in BANK18

    None.

Critical Paths under _main in BANK19

    None.

Critical Paths under _ISR in BANK19

    None.

Critical Paths under _main in BANK20

    None.

Critical Paths under _ISR in BANK20

    None.

Critical Paths under _main in BANK21

    None.

Critical Paths under _ISR in BANK21

    None.

Critical Paths under _main in BANK22

    None.

Critical Paths under _ISR in BANK22

    None.

Critical Paths under _main in BANK23

    None.

Critical Paths under _ISR in BANK23

    None.

Critical Paths under _main in BANK24

    None.

Critical Paths under _ISR in BANK24

    None.

Critical Paths under _main in BANK25

    None.

Critical Paths under _ISR in BANK25

    None.

Call Graph Tables:

 ---------------------------------------------------------------------------------
 (Depth) Function   	        Calls       Base Space   Used Autos Params    Refs
 ---------------------------------------------------------------------------------
 (0) _main                                                80    80      0    2883
                                              7 COMMON     2     2      0
                                              0 BANK0     74    74      0
                        _I2C1_IsBusy *
                         _I2C1_Write *
                  _SYSTEM_Initialize
                _TMR2_PeriodCountSet
                         _TMR2_Start
                          _TMR2_Stop
                _TMR4_PeriodCountSet
                         _TMR4_Start
                          _TMR4_Stop
 ---------------------------------------------------------------------------------
 (1) _TMR4_Stop                                            0     0      0       0
 ---------------------------------------------------------------------------------
 (1) _TMR4_Start                                           0     0      0       0
 ---------------------------------------------------------------------------------
 (1) _TMR4_PeriodCountSet                                  2     0      2     706
                                              0 COMMON     2     0      2
 ---------------------------------------------------------------------------------
 (1) _TMR2_Stop                                            0     0      0       0
 ---------------------------------------------------------------------------------
 (1) _TMR2_Start                                           0     0      0       0
 ---------------------------------------------------------------------------------
 (1) _TMR2_PeriodCountSet                                  2     0      2     934
                                              0 COMMON     2     0      2
 ---------------------------------------------------------------------------------
 (1) _SYSTEM_Initialize                                    0     0      0     392
                   _CLOCK_Initialize
                    _I2C1_Initialize
             _PIN_MANAGER_Initialize
                    _PWM5_Initialize
                    _PWM6_Initialize
                    _TMR2_Initialize
                    _TMR4_Initialize
 ---------------------------------------------------------------------------------
 (2) _TMR4_Initialize                                      0     0      0      98
      _TMR4_OverflowCallbackRegister
 ---------------------------------------------------------------------------------
 (3) _TMR4_OverflowCallbackRegister                        2     0      2      98
                                              0 COMMON     2     0      2
 ---------------------------------------------------------------------------------
 (2) _TMR2_Initialize                                      0     0      0      98
      _TMR2_OverflowCallbackRegister
 ---------------------------------------------------------------------------------
 (3) _TMR2_OverflowCallbackRegister                        2     0      2      98
                                              0 COMMON     2     0      2
 ---------------------------------------------------------------------------------
 (2) _PWM6_Initialize                                      0     0      0       0
 ---------------------------------------------------------------------------------
 (2) _PWM5_Initialize                                      0     0      0       0
 ---------------------------------------------------------------------------------
 (2) _PIN_MANAGER_Initialize                               0     0      0       0
 ---------------------------------------------------------------------------------
 (2) _I2C1_Initialize                                      0     0      0     196
              _I2C1_CallbackRegister
              _I2C1_InterruptsEnable
 ---------------------------------------------------------------------------------
 (3) _I2C1_InterruptsEnable                                0     0      0       0
 ---------------------------------------------------------------------------------
 (3) _I2C1_CallbackRegister                                2     0      2     196
                                              0 COMMON     2     0      2
 ---------------------------------------------------------------------------------
 (2) _CLOCK_Initialize                                     0     0      0       0
 ---------------------------------------------------------------------------------
 (1) _I2C1_Write                                           6     1      5     273
                                              1 COMMON     6     1      5
                        _I2C1_IsBusy
                    _I2C1_WriteStart
 ---------------------------------------------------------------------------------
 (2) _I2C1_WriteStart                                      0     0      0       0
                     _I2C1_StartSend
 ---------------------------------------------------------------------------------
 (3) _I2C1_StartSend                                       0     0      0       0
 ---------------------------------------------------------------------------------
 (2) _I2C1_IsBusy                                          1     1      0      24
                                              0 COMMON     1     1      0
 ---------------------------------------------------------------------------------
 Estimated maximum stack depth 3
 ---------------------------------------------------------------------------------
 (Depth) Function   	        Calls       Base Space   Used Autos Params    Refs
 ---------------------------------------------------------------------------------
 (4) _ISR                                                  0     0      0       0
 ---------------------------------------------------------------------------------
 Estimated maximum stack depth 4
 ---------------------------------------------------------------------------------

 Call Graph Graphs:

 _main (ROOT)
   _I2C1_IsBusy *
   _I2C1_Write *
     _I2C1_IsBusy
     _I2C1_WriteStart
       _I2C1_StartSend
   _SYSTEM_Initialize *
     _CLOCK_Initialize
     _I2C1_Initialize
       _I2C1_CallbackRegister
       _I2C1_InterruptsEnable
     _PIN_MANAGER_Initialize
     _PWM5_Initialize
     _PWM6_Initialize
     _TMR2_Initialize
       _TMR2_OverflowCallbackRegister
     _TMR4_Initialize
       _TMR4_OverflowCallbackRegister
   _TMR2_PeriodCountSet *
   _TMR2_Start *
   _TMR2_Stop *
   _TMR4_PeriodCountSet *
   _TMR4_Start *
   _TMR4_Stop *

 _ISR (ROOT)

 Address spaces:
Name               Size   Autos  Total    Cost      Usage
BIGRAM             7F0      0       0       0        0.0%
EEDATA             100      0       1       0        0.4%
NULL                 0      0       0       0        0.0%
CODE                 0      0       0       0        0.0%
BITCOMMON            E      0       0       1        0.0%
BITSFR0              0      0       0       1        0.0%
SFR0                 0      0       0       1        0.0%
COMMON               E      9       D       2       92.9%
BITSFR1              0      0       0       2        0.0%
SFR1                 0      0       0       2        0.0%
BITSFR2              0      0       0       3        0.0%
SFR2                 0      0       0       3        0.0%
STACK                0      0       0       3        0.0%
BITBANK0            50      0       0       4        0.0%
BITSFR3              0      0       0       4        0.0%
SFR3                 0      0       0       4        0.0%
BANK0               50     4A      4C       5       95.0%
BITSFR4              0      0       0       5        0.0%
SFR4                 0      0       0       5        0.0%
BITBANK1            50      0       0       6        0.0%
BITSFR5              0      0       0       6        0.0%
SFR5                 0      0       0       6        0.0%
BANK1               50      0      3D       7       76.2%
BITSFR6              0      0       0       7        0.0%
SFR6                 0      0       0       7        0.0%
BITBANK2            50      0       0       8        0.0%
BITSFR7              0      0       0       8        0.0%
SFR7                 0      0       0       8        0.0%
BANK2               50      0      18       9       30.0%
BITSFR8              0      0       0       9        0.0%
SFR8                 0      0       0       9        0.0%
BITBANK3            50      0       0      10        0.0%
BITSFR9              0      0       0      10        0.0%
SFR9                 0      0       0      10        0.0%
BANK3               50      0       0      11        0.0%
BITSFR10             0      0       0      11        0.0%
SFR10                0      0       0      11        0.0%
BITBANK4            50      0       0      12        0.0%
BITSFR11             0      0       0      12        0.0%
SFR11                0      0       0      12        0.0%
BANK4               50      0       0      13        0.0%
BITSFR12             0      0       0      13        0.0%
SFR12                0      0       0      13        0.0%
BITSFR13             0      0       0      14        0.0%
SFR13                0      0       0      14        0.0%
ABS                  0      0      AE      14        0.0%
BITBANK5            50      0       0      15        0.0%
BITSFR14             0      0       0      15        0.0%
SFR14                0      0       0      15        0.0%
BANK5               50      0       0      16        0.0%
BITSFR15             0      0       0      16        0.0%
SFR15                0      0       0      16        0.0%
BITBANK6            50      0       0      17        0.0%
BITSFR16             0      0       0      17        0.0%
SFR16                0      0       0      17        0.0%
BANK6               50      0       0      18        0.0%
BITSFR17             0      0       0      18        0.0%
SFR17                0      0       0      18        0.0%
BITBANK7            50      0       0      19        0.0%
BITSFR18             0      0       0      19        0.0%
SFR18                0      0       0      19        0.0%
BANK7               50      0       0      20        0.0%
BITSFR19             0      0       0      20        0.0%
SFR19                0      0       0      20        0.0%
BITBANK8            50      0       0      21        0.0%
BITSFR20             0      0       0      21        0.0%
SFR20                0      0       0      21        0.0%
BANK8               50      0       0      22        0.0%
BITSFR21             0      0       0      22        0.0%
SFR21                0      0       0      22        0.0%
BITBANK9            50      0       0      23        0.0%
BITSFR22             0      0       0      23        0.0%
SFR22                0      0       0      23        0.0%
BANK9               50      0       0      24        0.0%
BITSFR23             0      0       0      24        0.0%
SFR23                0      0       0      24        0.0%
BITBANK10           50      0       0      25        0.0%
BITSFR24             0      0       0      25        0.0%
SFR24                0      0       0      25        0.0%
BANK10              50      0       0      26        0.0%
BITSFR25             0      0       0      26        0.0%
SFR25                0      0       0      26        0.0%
BITBANK11           50      0       0      27        0.0%
BITSFR26             0      0       0      27        0.0%
SFR26                0      0       0      27        0.0%
BITSFR27             0      0       0      28        0.0%
SFR27                0      0       0      28        0.0%
DATA                 0      0      AE      28        0.0%
BANK11              50      0       0      29        0.0%
BITSFR28             0      0       0      29        0.0%
SFR28                0      0       0      29        0.0%
BITBANK12           50      0       0      30        0.0%
BITSFR29             0      0       0      30        0.0%
SFR29                0      0       0      30        0.0%
BANK12              50      0       0      31        0.0%
BITSFR30             0      0       0      31        0.0%
SFR30                0      0       0      31        0.0%
BITBANK13           50      0       0      32        0.0%
BITSFR31             0      0       0      32        0.0%
SFR31                0      0       0      32        0.0%
BANK13              50      0       0      33        0.0%
BITBANK14           50      0       0      34        0.0%
BANK14              50      0       0      35        0.0%
BITBANK15           50      0       0      36        0.0%
BANK15              50      0       0      37        0.0%
BITBANK16           50      0       0      38        0.0%
BANK16              50      0       0      39        0.0%
BITBANK17           50      0       0      40        0.0%
BANK17              50      0       0      41        0.0%
BITBANK18           50      0       0      42        0.0%
BANK18              50      0       0      43        0.0%
BITBANK19           50      0       0      44        0.0%
BANK19              50      0       0      45        0.0%
BITBANK20           50      0       0      46        0.0%
BANK20              50      0       0      47        0.0%
BITBANK21           50      0       0      48        0.0%
BANK21              50      0       0      49        0.0%
BITBANK22           50      0       0      50        0.0%
BANK22              50      0       0      51        0.0%
BITBANK23           50      0       0      52        0.0%
BANK23              50      0       0      53        0.0%
BITBANK24           50      0       0      54        0.0%
BANK24              50      0       0      55        0.0%
BITBANK25           20      0       0      56        0.0%
BANK25              20      0       0      57        0.0%


Microchip Technology PIC Macro Assembler V2.46 build 20240104201356 
Symbol Table                                                                                   Sun Aug 25 19:12:50 2024

                        ??_TMR2_PeriodCountSet 0072                 ?_TMR2_OverflowCallbackRegister 0070  
                               I2C1_Write@data 0073                           ?_TMR4_PeriodCountSet 0070  
                                          l122 0399                                            l115 03DD  
                                          l142 0456                                            l400 03C7  
                                          l138 0424                                            l226 0499  
                                          l154 0467                                            l250 048A  
                                          l422 0496                                            l273 043F  
                                          l425 0493                                            l434 0486  
                                          l419 0433                                            l365 0346  
                                          l437 047E                                            l383 0460  
                                          l287 044B                                            l463 0414  
                                          l481 0479                                            l466 0490  
                                          l469 048D                                            l478 0482  
                                          _PR2 001E                                            _PR4 0416  
                                          _ISR 0004                                            u560 0452  
                                          u720 00FF                                            u561 0451  
                                          u570 041D                                            u730 010D  
                                          u571 041C                                            u580 0422  
                                          u740 011B                                            u581 0421  
                                          u590 0380                                            u591 037F  
                                          u807 01C5                                            u817 01ED  
                                          u827 0214                                            u837 023B  
                                          u757 0140                                            u847 0263  
                                          u767 015A                                            u857 028B  
                                          u777 0174                                            u867 029A  
                                          u787 019C                                            u877 02BF  
                                          u797 01B6                                            u887 02E7  
                                          u897 02F9                                _TMR2_Initialize 0425  
                                          wreg 0009                                           ?_ISR 0070  
                                         l2001 040A                                           l2011 0387  
                                         l2003 040D                                           l2021 0392  
                                         l2013 0388                                           l2005 0377  
                                         l2023 0393                                           l2015 038A  
                                         l2007 0378                                           l2025 0396  
                                         l2017 038E                                           l2009 0380  
                                         l2041 03B2                                           l2019 0390  
                                         l2027 0398                                           l2043 0494  
                                         l2051 048B                                           l2045 0491  
                                         l2053 047F                                           l2301 0130  
                                         l2047 0483                                           l2311 0152  
                                         l2303 0138                                           l2049 048E  
                                         l2401 025B                                           l2321 016F  
                                         l2313 0155                                           l2305 013B  
                                         l2411 0278                                           l2403 025E  
                                         l2331 018C                                           l2323 017B  
                                         l2315 0161                                           l2307 0147  
                                         l2421 0295                                           l2413 027B  
                                         l2405 026A                                           l2341 01AE  
                                         l2333 0194                                           l2325 017E  
                                         l2317 0164                                           l2309 014A  
                                         l2431 02B7                                           l2423 02A1  
                                         l2415 0283                                           l2407 026D  
                                         l2351 01CF                                           l2343 01B1  
                                         l2335 0197                                           l2327 0186  
                                         l2319 016C                                           l2441 02D4  
                                         l2433 02BA                                           l2425 02A4  
                                         l2417 0286                                           l2409 0270  
                                         l2361 01E8                                           l2353 01D7  
                                         l2345 01BD                                           l2337 01A3  
                                         l2329 0189                                           l2451 02F1  
                                         l2443 02D7                                           l2435 02C6  
                                         l2427 02AC                                           l2419 0292  
                                         l2371 0204                                           l2363 01F3  
                                         l2355 01DA                                           l2347 01C0  
                                         l2339 01A6                                           l2291 0111  
                                         l1901 0452                                           l2453 02F4  
                                         l2445 02DF                                           l2437 02C9  
                                         l2429 02AF                                           l2381 0225  
                                         l2373 020C                                           l2365 01F6  
                                         l2357 01DD                                           l2349 01CC  
                                         l2293 011F                                           l2285 00F2  
                                         l1903 0497                                           l1911 03CD  
                                         l2447 02E2                                           l2439 02CC  
                                         l2391 0242                                           l2383 0228  
                                         l2375 020F                                           l2367 01FE  
                                         l2359 01E5                                           l2295 0122  
                                         l2287 00F5                                           l1921 0417  
                                         l1913 03CE                                           l1905 047A  
                                         l2449 02EE                                           l2393 0245  
                                         l2385 022B                                           l2377 021A  
                                         l2369 0201                                           l2297 012A  
                                         l2289 0103                                           l1923 041D  
                                         l1931 0461                                           l1915 03D1  
                                         l1907 0474                                           l2395 0248  
                                         l2387 0233                                           l2379 021D  
                                         l2299 012D                                           l1925 0422  
                                         l1933 0464                                           l1917 03DB  
                                         l1909 03C8                                           l1941 0447  
                                         l2397 0250                                           l2389 0236  
                                         l1927 0423                                           l1919 0415  
                                         l1951 0313                                           l1943 0303  
                                         l1935 0434                                           l2399 0253  
                                         l1961 0327                                           l1953 031D  
                                         l1945 0305                                           l1937 043B  
                                         l1971 0333                                           l1963 0329  
                                         l1955 0320                                           l1947 0307  
                                         l1939 0440                                           l1981 045B  
                                         l1973 0336                                           l1965 032B  
                                         l1957 0322                                           l1949 0312  
                                         l1983 045E                                           l1975 0339  
                                         l1967 032E                                           l1959 0324  
                                         l1991 042A                                           l1977 0457  
                                         l1897 0487                                           l1969 0330  
                                         l1993 042C                                           l1985 0425  
                                         l1979 045A                                           l1899 044C  
                                         l1987 0428                                           l1995 0404  
                                         l1989 0429                                           l1997 0407  
                                         l1999 0408                              _I2C1_Deinitialize 0000  
                                         _LATA 010C                                           _LATB 010D  
                                         _LATC 010E                                           _TMR2 001D  
                                         _TMR4 0415                                           _WPUA 020C  
                                         _WPUB 020D                                           _WPUC 020E  
                            I2C1_Write@address 0071                                           _main 00F2  
                                         fsr0h 0005                                           fsr1h 0007  
                                         indf0 0000                                           fsr0l 0004  
                                         fsr1l 0006                                           btemp 007E  
                                         start 00C6                                _PWM5_Initialize 0440  
                              _I2C1_EVENT_IDLE 0000                                _I2C1_EVENT_NACK 0000  
                                   _i2c1Status 00D0                                          ??_ISR 0070  
                              _I2C1_EVENT_STOP 0000                          ??_TMR4_PeriodCountSet 0072  
                            __end_of_I2C1_Host 03F2                                          ?_main 0070  
                                        _T2CON 001F                                          _T4CON 0417  
                                        _IOCAF 0393                                          _IOCBF 0396  
                                        _IOCCF 0399                                          _IOCAN 0392  
                                        _IOCAP 0391                                          _IOCBN 0395  
                                        _IOCBP 0394                                          _IOCCN 0398  
                                        _IOCCP 0397                                          i1l601 00A1  
                                        i1l602 009A                                          i1l604 00B4  
                                        i1l605 00AD                                          i1l607 00BB  
                                        i1l609 00C4                                          i1l580 0012  
                                        i1l581 0019                                          i1l590 0061  
                                        i1l582 0020                                          i1l591 005A  
                                        i1l583 006F                                          i1l584 003B  
                                        i1l593 0068                                          i1l585 0034  
                                        i1l587 004E                                          i1l579 00C2  
                                        i1l588 0047                                          i1l597 0078  
                                        i1l598 008E                                          i1l599 0087  
                                        _OSCEN 091D                                          u30_20 0029  
                                        u30_21 0028                                          u31_20 002D  
                                        u31_21 002C                                          u40_20 0066  
                                        u32_20 0032                                          u40_21 0065  
                                        u32_21 0031                                          u41_20 006D  
                                        u33_20 0039                                          u25_20 000B  
                                        u41_21 006C                                          u33_21 0038  
                                        u25_21 000A                                          u50_20 009F  
                                        u42_20 0074                                          u34_20 0040  
                                        u26_20 0010                                          u50_21 009E  
                                        u42_21 0073                                          u34_21 003F  
                                        u26_21 000F                                          u51_20 00A6  
                                        u43_20 0078                                          u35_20 0045  
                                        u27_20 0017                                          u51_21 00A5  
                                        u43_21 0077                                          u35_21 0044  
                                        u27_21 0016                                          u52_20 00AB  
                                        u44_20 007C                                          u36_20 004C  
                                        u28_20 001E                                          u52_21 00AA  
                                        u44_21 007B                                          u36_21 004B  
                                        u28_21 001D                                          u53_20 00B2  
                                        u45_20 0080                                          u37_20 0053  
                                        u29_20 0025                                          u53_21 00B1  
                                        u45_21 007F                                          u37_21 0052  
                                        u29_21 0024                                          u54_20 00B9  
                                        u46_20 0085                                          u38_20 0058  
                                        u54_21 00B8                                          u46_21 0084  
                                        u38_21 0057                                          u55_20 00C0  
                                        u47_20 008C                                          u39_20 005F  
                                        u55_21 00BF                                          u47_21 008B  
                                        u39_21 005E                                          u48_20 0093  
                                        u48_21 0092                                          u49_20 0098  
                                        u49_21 0097                                          _TRISA 008C  
                                        _TRISB 008D                                          _TRISC 008E  
                             ??_I2C1_StartSend 0070                                _TMR4_Initialize 0404  
                              _PWM6_Initialize 0434                              ??_I2C1_Initialize 0072  
                                        _alarm 0000                                    ?_TMR2_Start 0070  
                      ??_I2C1_CallbackRegister 0072                                    ?_TMR4_Start 0070  
                                        status 0003                                          wtemp0 007E  
                                 ??_I2C1_Write 0076                                __initialization 00C8  
                                 __end_of_main 0303                                  main@dataWrite 0050  
                             _I2C1_EVENT_ERROR 0000                               _I2C1_EVENT_RESET 0000  
                      __end_of_TMR2_Initialize 0434                                         ??_main 0077  
         I2C1_CallbackRegister@callbackHandler 0070                          _I2C1_InterruptsEnable 0487  
                           __end_of_I2C1_Write 039A                                         _ANSELA 018C  
                                       _ANSELB 018D                                         _ANSELC 018E  
                                       _RB4PPS 0E9C                                         _RC3PPS 0EA3  
                                       _RB6PPS 0E9E                                         _RC5PPS 0EA5  
                                       _ODCONA 028C                                         _ODCONB 028D  
                                       _ODCONC 028E                                         i1l1841 0017  
                                       i1l1851 0032                                         i1l1843 001E  
                                       i1l1835 0006                        __end_of_PWM5_Initialize 044C  
                                       i1l1861 0053                                         i1l1853 0039  
                                       i1l1845 0025                                         i1l1837 000B  
                                       i1l1871 0074                                         i1l1863 0058  
                                       i1l1855 0040                                         i1l1847 0029  
                                       i1l1839 0010                                         i1l1881 0093  
                                       i1l1873 007C                                         i1l1865 005F  
                                       i1l1857 0045                                         i1l1849 002D  
                                       i1l1891 00B2                                         i1l1883 0098  
                                       i1l1875 0080                                         i1l1867 0066  
                                       i1l1859 004C                                         i1l1893 00B9  
                                       i1l1885 009F                                         i1l1877 0085  
                                       i1l1869 006D                                         i1l1895 00C0  
                                       i1l1887 00A6                                         i1l1879 008C  
                                       i1l1889 00AB                                         _INLVLA 038C  
                                       _INLVLB 038D                                         _INLVLC 038E  
                                       _OSCFRQ 091F                   _TMR2_DefaultOverflowCallback 0000  
                            __end_of_TMR2_Stop 0494                              __end_of_TMR4_Stop 048E  
                      __end_of_PWM6_Initialize 0440                        __end_of_TMR4_Initialize 0415  
                                       main@o1 0052                                         main@o2 0038  
                                       main@o3 0020                              ?_CLOCK_Initialize 0070  
                                 __pdataEEDATA 0000          __end_of_TMR4_OverflowCallbackRegister 047A  
                _TMR4_OverflowCallbackRegister 0474                             ??_CLOCK_Initialize 0070  
                            ??_I2C1_WriteStart 0070                               __end_ofmain@test 049C  
                            _SYSTEM_Initialize 03B2                        __end_of__initialization 00EE  
                                ??_I2C1_IsBusy 0070                             ?_SYSTEM_Initialize 0070  
                               __pcstackCOMMON 0070                                   __pidataBANK1 0347  
                                 __pidataBANK2 039A                            ??_SYSTEM_Initialize 0072  
                              _I2C1_IsBusy$483 0070                               ?_TMR2_Initialize 0070  
                          I2C1_Write@retStatus 0076                         ?_I2C1_InterruptsEnable 0070  
              ??_TMR2_OverflowCallbackRegister 0072                      __end_of_SYSTEM_Initialize 03C8  
                                   __pbssBANK0 006A                                     __pbssBANK1 00D0  
                             ?_PWM5_Initialize 0070                    __end_of_TMR2_PeriodCountSet 0487  
                                   __pmaintext 00F2                            __end_of_I2C1_IsBusy 0425  
                                   __pintentry 0004                                _I2C1_Initialize 03C8  
                             ?_PWM6_Initialize 0070                               ?_TMR4_Initialize 0070  
                                    _I2C1_Read 0000                                      _I2C1_Host 03DE  
                                      _OSCCON1 0919                                        _OSCCON3 091B  
                                      _OSCTUNE 091E                                        _PWM5DCH 0618  
                                      _PWM5DCL 0617                                        _PWM6DCH 061B  
                                      _PWM6DCL 061A                                        _PWM5CON 0619  
                                      _PWM6CON 061C                                        _SSP1ADD 0212  
                                      _SLRCONA 030C                                        _SLRCONB 030D  
                                      _SLRCONC 030E                                        _SSP1BUF 0211  
               ?_TMR4_OverflowCallbackRegister 0070                                   ??_TMR2_Start 0070  
                                 ??_TMR4_Start 0070                  __end_of_I2C1_CallbackRegister 0457  
                  __end_of_TMR4_PeriodCountSet 0483                             __end_of_TMR2_Start 0497  
                           __end_of_TMR4_Start 0491                                        __ptext1 048B  
                                      __ptext2 048E                                        __ptext3 047F  
                                      __ptext4 0491                                        __ptext5 0494  
                                      __ptext6 0483                                        __ptext7 03B2  
                                      __ptext8 0404                                        __ptext9 0474  
                                    _T2CONbits 001F                           I2C1_Write@dataLength 0074  
                                    _T4CONbits 0417                       ??_PIN_MANAGER_Initialize 0070  
                              _i2c1_eventTable 03F2                                      _IOCAPbits 0391  
                                    _IOCBPbits 0394                                        clrloop0 046F  
TMR4_OverflowCallbackRegister@InterruptHandler 0070  TMR2_OverflowCallbackRegister@InterruptHandler 0070  
                         end_of_initialization 00EE                                        init_ram 0468  
                                      initloop 0469                                    _I2C1_IsBusy 0415  
                      __end_of_I2C1_Initialize 03DE                                _I2C1_WriteStart 0461  
                            __end_ofmain@tempo 049E                                      _PORTAbits 000C  
                                    _PORTCbits 000E                                      _TMR2_Stop 0491  
                                    _TMR4_Stop 048B                                      _TRISAbits 008C  
                                    _TRISBbits 008D                                      _TRISCbits 008E  
                                __pidataEEDATA 0000                   TMR2_PeriodCountSet@periodVal 0070  
                      __end_of_i2c1_eventTable 0404                                     ?_TMR2_Stop 0070  
                                   ?_TMR4_Stop 0070                        ??_I2C1_InterruptsEnable 0070  
                          start_initialization 00C8                                    __end_of_ISR 00C6  
                      _I2C1_EVENT_SEND_RD_ADDR 0000                        __end_of_I2C1_WriteStart 0468  
                             ?_I2C1_Initialize 0070                        _I2C1_EVENT_SEND_WR_ADDR 0000  
                                  __pdataBANK1 00A0                                    __pdataBANK2 0120  
                                  __pbssCOMMON 0079                                      ___latbits 0003  
                                __pcstackBANK0 0020                          _TMR2_OverflowCallback 0079  
                       _PIN_MANAGER_Initialize 0303                ??_TMR4_OverflowCallbackRegister 0072  
                                  ??_TMR2_Stop 0070                                    ??_TMR4_Stop 0070  
                             _CLOCK_Initialize 0457                                 _I2C1_StartSend 0497  
                                     _LATAbits 010C                                       _LATCbits 010E  
                                 ?_I2C1_IsBusy 0070                          _I2C1_CallbackRegister 044C  
                                    clear_ram0 046E                                       _PIE0bits 0090  
                                     _PIE1bits 0091                               ?_I2C1_WriteStart 0070  
                                     _PIR0bits 0010                                       _PIR1bits 0011  
                                     _PIR2bits 0012                                     _I2C1_Write 0377  
                                     _OSCSTAT1 091C                                 _I2C1_WriteRead 0000  
                                    main@F7130 00B8                                      main@F7132 00A0  
                                    main@F7134 0120                                       _SSP1CON1 0215  
                                     _SSP1CON2 0216                                       _SSP1CON3 0217  
                                     _SSP1STAT 0214                                      main@tempo 049C  
                                _I2C1_EVENT_RX 0000                                  _I2C1_EVENT_TX 0000  
                       __end_of_I2C1_StartSend 049A                              ??_TMR2_Initialize 0072  
                                _I2C1_Callback 007B                           _I2C1_DefaultCallback 0000  
                            ??_PWM5_Initialize 0070                                     _ANSELAbits 018C  
                                   _ANSELBbits 018D                                     _ANSELCbits 018E  
                __end_of_I2C1_InterruptsEnable 048B                                  _I2C1_ErrorGet 0000  
                                     __ptext10 0425                                       __ptext11 047A  
                                     __ptext20 0461                                       __ptext12 0434  
                                     __ptext21 0497                                       __ptext13 0440  
                                     __ptext22 0415                                       __ptext14 0303  
                                     __ptext15 03C8                                       __ptext16 0487  
                                     __ptext17 044C                                       __ptext18 0457  
                                     __ptext19 0377                                   _SSP1CON1bits 0215  
                                 _SSP1CON2bits 0216                                ?_I2C1_StartSend 0070  
                       ?_I2C1_CallbackRegister 0070                              ??_TMR4_Initialize 0072  
                            ??_PWM6_Initialize 0070          __end_of_TMR2_OverflowCallbackRegister 047F  
                _TMR2_OverflowCallbackRegister 047A                                    ?_I2C1_Write 0071  
                                     int$flags 007E                                   _SSP1STATbits 0214  
                                     main@test 049A                   _TMR4_DefaultOverflowCallback 0000  
                          _TMR2_PeriodCountSet 0483                                       intlevel1 0000  
                 TMR4_PeriodCountSet@periodVal 0070                        ?_PIN_MANAGER_Initialize 0070  
                         ?_TMR2_PeriodCountSet 0070                       __end_of_CLOCK_Initialize 0461  
                                __pstringtext1 03F2                                  __pstringtext2 049A  
                                __pstringtext3 03DE                                  __pstringtext4 049C  
                                   _SSP1DATPPS 0E21                                     _SSP1CLKPPS 0E20  
                                   _TMR2_Start 0494                                     _TMR4_Start 048E  
               __end_of_PIN_MANAGER_Initialize 0347                                    _PWMTMRSbits 061F  
                        _TMR4_OverflowCallback 006A                            _TMR4_PeriodCountSet 047F  
